
carwasher_board_fw.elf:     file format elf32-littlearm

Sections:
Idx Name          Size      VMA       LMA       File off  Algn
  0 .isr_vector   0000010c  08000000  08000000  00010000  2**0
                  CONTENTS, ALLOC, LOAD, READONLY, DATA
  1 .text         00003654  0800010c  0800010c  0001010c  2**2
                  CONTENTS, ALLOC, LOAD, READONLY, CODE
  2 .rodata       000002f4  08003760  08003760  00013760  2**0
                  CONTENTS, ALLOC, LOAD, READONLY, DATA
  3 .ARM.extab    00000000  08003a54  08003a54  00020080  2**0
                  CONTENTS
  4 .ARM          00000000  08003a54  08003a54  00020080  2**0
                  CONTENTS
  5 .preinit_array 00000000  08003a54  08003a54  00020080  2**0
                  CONTENTS, ALLOC, LOAD, DATA
  6 .init_array   00000004  08003a54  08003a54  00013a54  2**2
                  CONTENTS, ALLOC, LOAD, DATA
  7 .fini_array   00000004  08003a58  08003a58  00013a58  2**2
                  CONTENTS, ALLOC, LOAD, DATA
  8 .data         00000080  20000000  08003a5c  00020000  2**2
                  CONTENTS, ALLOC, LOAD, DATA
  9 .bss          000001a8  20000080  08003adc  00020080  2**2
                  ALLOC
 10 ._user_heap_stack 00000600  20000228  08003adc  00020228  2**0
                  ALLOC
 11 .ARM.attributes 00000029  00000000  00000000  00020080  2**0
                  CONTENTS, READONLY
 12 .comment      00000053  00000000  00000000  000200a9  2**0
                  CONTENTS, READONLY
 13 .debug_frame  0000048c  00000000  00000000  000200fc  2**2
                  CONTENTS, READONLY, DEBUGGING, OCTETS

Disassembly of section .text:

0800010c <__do_global_dtors_aux>:
 800010c:	b510      	push	{r4, lr}
 800010e:	4c05      	ldr	r4, [pc, #20]	; (8000124 <__do_global_dtors_aux+0x18>)
 8000110:	7823      	ldrb	r3, [r4, #0]
 8000112:	b933      	cbnz	r3, 8000122 <__do_global_dtors_aux+0x16>
 8000114:	4b04      	ldr	r3, [pc, #16]	; (8000128 <__do_global_dtors_aux+0x1c>)
 8000116:	b113      	cbz	r3, 800011e <__do_global_dtors_aux+0x12>
 8000118:	4804      	ldr	r0, [pc, #16]	; (800012c <__do_global_dtors_aux+0x20>)
 800011a:	f3af 8000 	nop.w
 800011e:	2301      	movs	r3, #1
 8000120:	7023      	strb	r3, [r4, #0]
 8000122:	bd10      	pop	{r4, pc}
 8000124:	20000080 	.word	0x20000080
 8000128:	00000000 	.word	0x00000000
 800012c:	08003748 	.word	0x08003748

08000130 <frame_dummy>:
 8000130:	b508      	push	{r3, lr}
 8000132:	4b03      	ldr	r3, [pc, #12]	; (8000140 <frame_dummy+0x10>)
 8000134:	b11b      	cbz	r3, 800013e <frame_dummy+0xe>
 8000136:	4903      	ldr	r1, [pc, #12]	; (8000144 <frame_dummy+0x14>)
 8000138:	4803      	ldr	r0, [pc, #12]	; (8000148 <frame_dummy+0x18>)
 800013a:	f3af 8000 	nop.w
 800013e:	bd08      	pop	{r3, pc}
 8000140:	00000000 	.word	0x00000000
 8000144:	20000084 	.word	0x20000084
 8000148:	08003748 	.word	0x08003748

0800014c <strlen>:
 800014c:	4603      	mov	r3, r0
 800014e:	f813 2b01 	ldrb.w	r2, [r3], #1
 8000152:	2a00      	cmp	r2, #0
 8000154:	d1fb      	bne.n	800014e <strlen+0x2>
 8000156:	1a18      	subs	r0, r3, r0
 8000158:	3801      	subs	r0, #1
 800015a:	4770      	bx	lr

0800015c <MX_GPIO_Init>:
 800015c:	2210      	movs	r2, #16
 800015e:	e92d 41f0 	stmdb	sp!, {r4, r5, r6, r7, r8, lr}
 8000162:	b088      	sub	sp, #32
 8000164:	eb0d 0002 	add.w	r0, sp, r2
 8000168:	2100      	movs	r1, #0
 800016a:	f002 fea3 	bl	8002eb4 <memset>
 800016e:	4b3d      	ldr	r3, [pc, #244]	; (8000264 <MX_GPIO_Init+0x108>)
 8000170:	4f3d      	ldr	r7, [pc, #244]	; (8000268 <MX_GPIO_Init+0x10c>)
 8000172:	699a      	ldr	r2, [r3, #24]
 8000174:	4e3d      	ldr	r6, [pc, #244]	; (800026c <MX_GPIO_Init+0x110>)
 8000176:	f042 0210 	orr.w	r2, r2, #16
 800017a:	619a      	str	r2, [r3, #24]
 800017c:	699a      	ldr	r2, [r3, #24]
 800017e:	4638      	mov	r0, r7
 8000180:	f002 0210 	and.w	r2, r2, #16
 8000184:	9200      	str	r2, [sp, #0]
 8000186:	9a00      	ldr	r2, [sp, #0]
 8000188:	699a      	ldr	r2, [r3, #24]
 800018a:	f245 3103 	movw	r1, #21251	; 0x5303
 800018e:	f042 0220 	orr.w	r2, r2, #32
 8000192:	619a      	str	r2, [r3, #24]
 8000194:	699a      	ldr	r2, [r3, #24]
 8000196:	2400      	movs	r4, #0
 8000198:	f002 0220 	and.w	r2, r2, #32
 800019c:	9201      	str	r2, [sp, #4]
 800019e:	9a01      	ldr	r2, [sp, #4]
 80001a0:	699a      	ldr	r2, [r3, #24]
 80001a2:	2502      	movs	r5, #2
 80001a4:	f042 0204 	orr.w	r2, r2, #4
 80001a8:	619a      	str	r2, [r3, #24]
 80001aa:	699a      	ldr	r2, [r3, #24]
 80001ac:	f04f 0801 	mov.w	r8, #1
 80001b0:	f002 0204 	and.w	r2, r2, #4
 80001b4:	9202      	str	r2, [sp, #8]
 80001b6:	9a02      	ldr	r2, [sp, #8]
 80001b8:	699a      	ldr	r2, [r3, #24]
 80001ba:	f042 0208 	orr.w	r2, r2, #8
 80001be:	619a      	str	r2, [r3, #24]
 80001c0:	699b      	ldr	r3, [r3, #24]
 80001c2:	2200      	movs	r2, #0
 80001c4:	f003 0308 	and.w	r3, r3, #8
 80001c8:	9303      	str	r3, [sp, #12]
 80001ca:	9b03      	ldr	r3, [sp, #12]
 80001cc:	f001 fc88 	bl	8001ae0 <HAL_GPIO_WritePin>
 80001d0:	2200      	movs	r2, #0
 80001d2:	4630      	mov	r0, r6
 80001d4:	f44f 6110 	mov.w	r1, #2304	; 0x900
 80001d8:	f001 fc82 	bl	8001ae0 <HAL_GPIO_WritePin>
 80001dc:	f248 03fe 	movw	r3, #33022	; 0x80fe
 80001e0:	4630      	mov	r0, r6
 80001e2:	a904      	add	r1, sp, #16
 80001e4:	e9cd 3404 	strd	r3, r4, [sp, #16]
 80001e8:	9506      	str	r5, [sp, #24]
 80001ea:	f001 fb97 	bl	800191c <HAL_GPIO_Init>
 80001ee:	f245 3303 	movw	r3, #21251	; 0x5303
 80001f2:	4638      	mov	r0, r7
 80001f4:	a904      	add	r1, sp, #16
 80001f6:	e9cd 3804 	strd	r3, r8, [sp, #16]
 80001fa:	e9cd 5506 	strd	r5, r5, [sp, #24]
 80001fe:	f001 fb8d 	bl	800191c <HAL_GPIO_Init>
 8000202:	f44f 7380 	mov.w	r3, #256	; 0x100
 8000206:	4630      	mov	r0, r6
 8000208:	a904      	add	r1, sp, #16
 800020a:	e9cd 3804 	strd	r3, r8, [sp, #16]
 800020e:	e9cd 5506 	strd	r5, r5, [sp, #24]
 8000212:	f001 fb83 	bl	800191c <HAL_GPIO_Init>
 8000216:	f44f 6300 	mov.w	r3, #2048	; 0x800
 800021a:	4630      	mov	r0, r6
 800021c:	a904      	add	r1, sp, #16
 800021e:	e9cd 3804 	strd	r3, r8, [sp, #16]
 8000222:	e9cd 4506 	strd	r4, r5, [sp, #24]
 8000226:	f001 fb79 	bl	800191c <HAL_GPIO_Init>
 800022a:	2230      	movs	r2, #48	; 0x30
 800022c:	4b10      	ldr	r3, [pc, #64]	; (8000270 <MX_GPIO_Init+0x114>)
 800022e:	4638      	mov	r0, r7
 8000230:	a904      	add	r1, sp, #16
 8000232:	e9cd 2304 	strd	r2, r3, [sp, #16]
 8000236:	9406      	str	r4, [sp, #24]
 8000238:	f001 fb70 	bl	800191c <HAL_GPIO_Init>
 800023c:	4622      	mov	r2, r4
 800023e:	4621      	mov	r1, r4
 8000240:	200a      	movs	r0, #10
 8000242:	f001 fb15 	bl	8001870 <HAL_NVIC_SetPriority>
 8000246:	200a      	movs	r0, #10
 8000248:	f001 fb44 	bl	80018d4 <HAL_NVIC_EnableIRQ>
 800024c:	4622      	mov	r2, r4
 800024e:	4621      	mov	r1, r4
 8000250:	2017      	movs	r0, #23
 8000252:	f001 fb0d 	bl	8001870 <HAL_NVIC_SetPriority>
 8000256:	2017      	movs	r0, #23
 8000258:	f001 fb3c 	bl	80018d4 <HAL_NVIC_EnableIRQ>
 800025c:	b008      	add	sp, #32
 800025e:	e8bd 81f0 	ldmia.w	sp!, {r4, r5, r6, r7, r8, pc}
 8000262:	bf00      	nop
 8000264:	40021000 	.word	0x40021000
 8000268:	40010c00 	.word	0x40010c00
 800026c:	40010800 	.word	0x40010800
 8000270:	10110000 	.word	0x10110000

08000274 <SystemClock_Config>:
 8000274:	b570      	push	{r4, r5, r6, lr}
 8000276:	2214      	movs	r2, #20
 8000278:	2400      	movs	r4, #0
 800027a:	2610      	movs	r6, #16
 800027c:	b094      	sub	sp, #80	; 0x50
 800027e:	4621      	mov	r1, r4
 8000280:	eb0d 0002 	add.w	r0, sp, r2
 8000284:	e9cd 440b 	strd	r4, r4, [sp, #44]	; 0x2c
 8000288:	940d      	str	r4, [sp, #52]	; 0x34
 800028a:	f002 fe13 	bl	8002eb4 <memset>
 800028e:	4632      	mov	r2, r6
 8000290:	4621      	mov	r1, r4
 8000292:	a801      	add	r0, sp, #4
 8000294:	f002 fe0e 	bl	8002eb4 <memset>
 8000298:	2501      	movs	r5, #1
 800029a:	230a      	movs	r3, #10
 800029c:	e9cd 560e 	strd	r5, r6, [sp, #56]	; 0x38
 80002a0:	930a      	str	r3, [sp, #40]	; 0x28
 80002a2:	2602      	movs	r6, #2
 80002a4:	f44f 1360 	mov.w	r3, #3670016	; 0x380000
 80002a8:	a80a      	add	r0, sp, #40	; 0x28
 80002aa:	e9cd 6411 	strd	r6, r4, [sp, #68]	; 0x44
 80002ae:	9510      	str	r5, [sp, #64]	; 0x40
 80002b0:	9313      	str	r3, [sp, #76]	; 0x4c
 80002b2:	f001 fc35 	bl	8001b20 <HAL_RCC_OscConfig>
 80002b6:	b108      	cbz	r0, 80002bc <SystemClock_Config+0x48>
 80002b8:	b672      	cpsid	i
 80002ba:	e7fe      	b.n	80002ba <SystemClock_Config+0x46>
 80002bc:	230f      	movs	r3, #15
 80002be:	e9cd 3605 	strd	r3, r6, [sp, #20]
 80002c2:	f44f 6380 	mov.w	r3, #1024	; 0x400
 80002c6:	9007      	str	r0, [sp, #28]
 80002c8:	e9cd 3008 	strd	r3, r0, [sp, #32]
 80002cc:	4631      	mov	r1, r6
 80002ce:	a805      	add	r0, sp, #20
 80002d0:	f001 fdfc 	bl	8001ecc <HAL_RCC_ClockConfig>
 80002d4:	b108      	cbz	r0, 80002da <SystemClock_Config+0x66>
 80002d6:	b672      	cpsid	i
 80002d8:	e7fe      	b.n	80002d8 <SystemClock_Config+0x64>
 80002da:	f44f 7300 	mov.w	r3, #512	; 0x200
 80002de:	a801      	add	r0, sp, #4
 80002e0:	9501      	str	r5, [sp, #4]
 80002e2:	9302      	str	r3, [sp, #8]
 80002e4:	f001 feae 	bl	8002044 <HAL_RCCEx_PeriphCLKConfig>
 80002e8:	b108      	cbz	r0, 80002ee <SystemClock_Config+0x7a>
 80002ea:	b672      	cpsid	i
 80002ec:	e7fe      	b.n	80002ec <SystemClock_Config+0x78>
 80002ee:	b014      	add	sp, #80	; 0x50
 80002f0:	bd70      	pop	{r4, r5, r6, pc}
	...

080002f4 <send_iot_status>:
 80002f4:	b537      	push	{r0, r1, r2, r4, r5, lr}
 80002f6:	4d18      	ldr	r5, [pc, #96]	; (8000358 <send_iot_status+0x64>)
 80002f8:	4604      	mov	r4, r0
 80002fa:	f04f 33ff 	mov.w	r3, #4294967295	; 0xffffffff
 80002fe:	221f      	movs	r2, #31
 8000300:	4628      	mov	r0, r5
 8000302:	4916      	ldr	r1, [pc, #88]	; (800035c <send_iot_status+0x68>)
 8000304:	f002 fd56 	bl	8002db4 <HAL_UART_Transmit>
 8000308:	2302      	movs	r3, #2
 800030a:	f88d 3000 	strb.w	r3, [sp]
 800030e:	4b14      	ldr	r3, [pc, #80]	; (8000360 <send_iot_status+0x6c>)
 8000310:	4669      	mov	r1, sp
 8000312:	881b      	ldrh	r3, [r3, #0]
 8000314:	2208      	movs	r2, #8
 8000316:	f88d 3001 	strb.w	r3, [sp, #1]
 800031a:	2300      	movs	r3, #0
 800031c:	f88d 3002 	strb.w	r3, [sp, #2]
 8000320:	4b10      	ldr	r3, [pc, #64]	; (8000364 <send_iot_status+0x70>)
 8000322:	4628      	mov	r0, r5
 8000324:	781b      	ldrb	r3, [r3, #0]
 8000326:	f88d 4004 	strb.w	r4, [sp, #4]
 800032a:	f88d 3003 	strb.w	r3, [sp, #3]
 800032e:	2303      	movs	r3, #3
 8000330:	f88d 3005 	strb.w	r3, [sp, #5]
 8000334:	f640 230d 	movw	r3, #2573	; 0xa0d
 8000338:	f8ad 3006 	strh.w	r3, [sp, #6]
 800033c:	f04f 33ff 	mov.w	r3, #4294967295	; 0xffffffff
 8000340:	f002 fd38 	bl	8002db4 <HAL_UART_Transmit>
 8000344:	f04f 33ff 	mov.w	r3, #4294967295	; 0xffffffff
 8000348:	2208      	movs	r2, #8
 800034a:	4669      	mov	r1, sp
 800034c:	4806      	ldr	r0, [pc, #24]	; (8000368 <send_iot_status+0x74>)
 800034e:	f002 fd31 	bl	8002db4 <HAL_UART_Transmit>
 8000352:	b003      	add	sp, #12
 8000354:	bd30      	pop	{r4, r5, pc}
 8000356:	bf00      	nop
 8000358:	200001d0 	.word	0x200001d0
 800035c:	08003760 	.word	0x08003760
 8000360:	2000009e 	.word	0x2000009e
 8000364:	200000af 	.word	0x200000af
 8000368:	2000018c 	.word	0x2000018c

0800036c <eeprom_write>:
 800036c:	3801      	subs	r0, #1
 800036e:	460a      	mov	r2, r1
 8000370:	2806      	cmp	r0, #6
 8000372:	d815      	bhi.n	80003a0 <eeprom_write+0x34>
 8000374:	e8df f000 	tbb	[pc, r0]
 8000378:	0c0a0804 	.word	0x0c0a0804
 800037c:	100e      	.short	0x100e
 800037e:	12          	.byte	0x12
 800037f:	00          	.byte	0x00
 8000380:	2101      	movs	r1, #1
 8000382:	4808      	ldr	r0, [pc, #32]	; (80003a4 <eeprom_write+0x38>)
 8000384:	f002 b90a 	b.w	800259c <HAL_RTCEx_BKUPWrite>
 8000388:	2102      	movs	r1, #2
 800038a:	e7fa      	b.n	8000382 <eeprom_write+0x16>
 800038c:	2103      	movs	r1, #3
 800038e:	e7f8      	b.n	8000382 <eeprom_write+0x16>
 8000390:	2104      	movs	r1, #4
 8000392:	e7f6      	b.n	8000382 <eeprom_write+0x16>
 8000394:	2105      	movs	r1, #5
 8000396:	e7f4      	b.n	8000382 <eeprom_write+0x16>
 8000398:	2106      	movs	r1, #6
 800039a:	e7f2      	b.n	8000382 <eeprom_write+0x16>
 800039c:	2107      	movs	r1, #7
 800039e:	e7f0      	b.n	8000382 <eeprom_write+0x16>
 80003a0:	4770      	bx	lr
 80003a2:	bf00      	nop
 80003a4:	200000d8 	.word	0x200000d8

080003a8 <store_credit_eeprom>:
 80003a8:	b510      	push	{r4, lr}
 80003aa:	4604      	mov	r4, r0
 80003ac:	b2c1      	uxtb	r1, r0
 80003ae:	2006      	movs	r0, #6
 80003b0:	f7ff ffdc 	bl	800036c <eeprom_write>
 80003b4:	0a21      	lsrs	r1, r4, #8
 80003b6:	2007      	movs	r0, #7
 80003b8:	e8bd 4010 	ldmia.w	sp!, {r4, lr}
 80003bc:	f7ff bfd6 	b.w	800036c <eeprom_write>

080003c0 <set_add_duration_of_function>:
 80003c0:	2800      	cmp	r0, #0
 80003c2:	d03f      	beq.n	8000444 <set_add_duration_of_function+0x84>
 80003c4:	3801      	subs	r0, #1
 80003c6:	2804      	cmp	r0, #4
 80003c8:	d83c      	bhi.n	8000444 <set_add_duration_of_function+0x84>
 80003ca:	e8df f000 	tbb	[pc, r0]
 80003ce:	0f03      	.short	0x0f03
 80003d0:	251a      	.short	0x251a
 80003d2:	30          	.byte	0x30
 80003d3:	00          	.byte	0x00
 80003d4:	4a1c      	ldr	r2, [pc, #112]	; (8000448 <set_add_duration_of_function+0x88>)
 80003d6:	7813      	ldrb	r3, [r2, #0]
 80003d8:	2b62      	cmp	r3, #98	; 0x62
 80003da:	d833      	bhi.n	8000444 <set_add_duration_of_function+0x84>
 80003dc:	2001      	movs	r0, #1
 80003de:	7813      	ldrb	r3, [r2, #0]
 80003e0:	3301      	adds	r3, #1
 80003e2:	b2db      	uxtb	r3, r3
 80003e4:	7013      	strb	r3, [r2, #0]
 80003e6:	7811      	ldrb	r1, [r2, #0]
 80003e8:	f7ff bfc0 	b.w	800036c <eeprom_write>
 80003ec:	4a17      	ldr	r2, [pc, #92]	; (800044c <set_add_duration_of_function+0x8c>)
 80003ee:	7813      	ldrb	r3, [r2, #0]
 80003f0:	2b62      	cmp	r3, #98	; 0x62
 80003f2:	d827      	bhi.n	8000444 <set_add_duration_of_function+0x84>
 80003f4:	7813      	ldrb	r3, [r2, #0]
 80003f6:	2002      	movs	r0, #2
 80003f8:	3301      	adds	r3, #1
 80003fa:	b2db      	uxtb	r3, r3
 80003fc:	7013      	strb	r3, [r2, #0]
 80003fe:	7811      	ldrb	r1, [r2, #0]
 8000400:	e7f2      	b.n	80003e8 <set_add_duration_of_function+0x28>
 8000402:	4a13      	ldr	r2, [pc, #76]	; (8000450 <set_add_duration_of_function+0x90>)
 8000404:	7813      	ldrb	r3, [r2, #0]
 8000406:	2b62      	cmp	r3, #98	; 0x62
 8000408:	d81c      	bhi.n	8000444 <set_add_duration_of_function+0x84>
 800040a:	7813      	ldrb	r3, [r2, #0]
 800040c:	2003      	movs	r0, #3
 800040e:	3301      	adds	r3, #1
 8000410:	b2db      	uxtb	r3, r3
 8000412:	7013      	strb	r3, [r2, #0]
 8000414:	7811      	ldrb	r1, [r2, #0]
 8000416:	e7e7      	b.n	80003e8 <set_add_duration_of_function+0x28>
 8000418:	4a0e      	ldr	r2, [pc, #56]	; (8000454 <set_add_duration_of_function+0x94>)
 800041a:	7813      	ldrb	r3, [r2, #0]
 800041c:	2b62      	cmp	r3, #98	; 0x62
 800041e:	d811      	bhi.n	8000444 <set_add_duration_of_function+0x84>
 8000420:	7813      	ldrb	r3, [r2, #0]
 8000422:	2004      	movs	r0, #4
 8000424:	3301      	adds	r3, #1
 8000426:	b2db      	uxtb	r3, r3
 8000428:	7013      	strb	r3, [r2, #0]
 800042a:	7811      	ldrb	r1, [r2, #0]
 800042c:	e7dc      	b.n	80003e8 <set_add_duration_of_function+0x28>
 800042e:	4a0a      	ldr	r2, [pc, #40]	; (8000458 <set_add_duration_of_function+0x98>)
 8000430:	7813      	ldrb	r3, [r2, #0]
 8000432:	2b62      	cmp	r3, #98	; 0x62
 8000434:	d806      	bhi.n	8000444 <set_add_duration_of_function+0x84>
 8000436:	7813      	ldrb	r3, [r2, #0]
 8000438:	2005      	movs	r0, #5
 800043a:	3301      	adds	r3, #1
 800043c:	b2db      	uxtb	r3, r3
 800043e:	7013      	strb	r3, [r2, #0]
 8000440:	7811      	ldrb	r1, [r2, #0]
 8000442:	e7d1      	b.n	80003e8 <set_add_duration_of_function+0x28>
 8000444:	4770      	bx	lr
 8000446:	bf00      	nop
 8000448:	20000000 	.word	0x20000000
 800044c:	20000001 	.word	0x20000001
 8000450:	20000002 	.word	0x20000002
 8000454:	20000003 	.word	0x20000003
 8000458:	20000004 	.word	0x20000004

0800045c <set_substract_duration_of_function>:
 800045c:	2800      	cmp	r0, #0
 800045e:	d03b      	beq.n	80004d8 <set_substract_duration_of_function+0x7c>
 8000460:	3801      	subs	r0, #1
 8000462:	2804      	cmp	r0, #4
 8000464:	d838      	bhi.n	80004d8 <set_substract_duration_of_function+0x7c>
 8000466:	e8df f000 	tbb	[pc, r0]
 800046a:	0f03      	.short	0x0f03
 800046c:	2319      	.short	0x2319
 800046e:	2d          	.byte	0x2d
 800046f:	00          	.byte	0x00
 8000470:	4a1a      	ldr	r2, [pc, #104]	; (80004dc <set_substract_duration_of_function+0x80>)
 8000472:	7813      	ldrb	r3, [r2, #0]
 8000474:	2b00      	cmp	r3, #0
 8000476:	d02f      	beq.n	80004d8 <set_substract_duration_of_function+0x7c>
 8000478:	2001      	movs	r0, #1
 800047a:	7813      	ldrb	r3, [r2, #0]
 800047c:	3b01      	subs	r3, #1
 800047e:	b2db      	uxtb	r3, r3
 8000480:	7013      	strb	r3, [r2, #0]
 8000482:	7811      	ldrb	r1, [r2, #0]
 8000484:	f7ff bf72 	b.w	800036c <eeprom_write>
 8000488:	4a15      	ldr	r2, [pc, #84]	; (80004e0 <set_substract_duration_of_function+0x84>)
 800048a:	7813      	ldrb	r3, [r2, #0]
 800048c:	b323      	cbz	r3, 80004d8 <set_substract_duration_of_function+0x7c>
 800048e:	7813      	ldrb	r3, [r2, #0]
 8000490:	2002      	movs	r0, #2
 8000492:	3b01      	subs	r3, #1
 8000494:	b2db      	uxtb	r3, r3
 8000496:	7013      	strb	r3, [r2, #0]
 8000498:	7811      	ldrb	r1, [r2, #0]
 800049a:	e7f3      	b.n	8000484 <set_substract_duration_of_function+0x28>
 800049c:	4a11      	ldr	r2, [pc, #68]	; (80004e4 <set_substract_duration_of_function+0x88>)
 800049e:	7813      	ldrb	r3, [r2, #0]
 80004a0:	b1d3      	cbz	r3, 80004d8 <set_substract_duration_of_function+0x7c>
 80004a2:	7813      	ldrb	r3, [r2, #0]
 80004a4:	2003      	movs	r0, #3
 80004a6:	3b01      	subs	r3, #1
 80004a8:	b2db      	uxtb	r3, r3
 80004aa:	7013      	strb	r3, [r2, #0]
 80004ac:	7811      	ldrb	r1, [r2, #0]
 80004ae:	e7e9      	b.n	8000484 <set_substract_duration_of_function+0x28>
 80004b0:	4a0d      	ldr	r2, [pc, #52]	; (80004e8 <set_substract_duration_of_function+0x8c>)
 80004b2:	7813      	ldrb	r3, [r2, #0]
 80004b4:	b183      	cbz	r3, 80004d8 <set_substract_duration_of_function+0x7c>
 80004b6:	7813      	ldrb	r3, [r2, #0]
 80004b8:	2004      	movs	r0, #4
 80004ba:	3b01      	subs	r3, #1
 80004bc:	b2db      	uxtb	r3, r3
 80004be:	7013      	strb	r3, [r2, #0]
 80004c0:	7811      	ldrb	r1, [r2, #0]
 80004c2:	e7df      	b.n	8000484 <set_substract_duration_of_function+0x28>
 80004c4:	4a09      	ldr	r2, [pc, #36]	; (80004ec <set_substract_duration_of_function+0x90>)
 80004c6:	7813      	ldrb	r3, [r2, #0]
 80004c8:	b133      	cbz	r3, 80004d8 <set_substract_duration_of_function+0x7c>
 80004ca:	7813      	ldrb	r3, [r2, #0]
 80004cc:	2005      	movs	r0, #5
 80004ce:	3b01      	subs	r3, #1
 80004d0:	b2db      	uxtb	r3, r3
 80004d2:	7013      	strb	r3, [r2, #0]
 80004d4:	7811      	ldrb	r1, [r2, #0]
 80004d6:	e7d5      	b.n	8000484 <set_substract_duration_of_function+0x28>
 80004d8:	4770      	bx	lr
 80004da:	bf00      	nop
 80004dc:	20000000 	.word	0x20000000
 80004e0:	20000001 	.word	0x20000001
 80004e4:	20000002 	.word	0x20000002
 80004e8:	20000003 	.word	0x20000003
 80004ec:	20000004 	.word	0x20000004

080004f0 <segment_display_function_settings>:
 80004f0:	b538      	push	{r3, r4, r5, lr}
 80004f2:	460c      	mov	r4, r1
 80004f4:	4605      	mov	r5, r0
 80004f6:	f000 fec1 	bl	800127c <max7219_Decode_On>
 80004fa:	f000 fe87 	bl	800120c <max7219_Clean>
 80004fe:	2c09      	cmp	r4, #9
 8000500:	dc0a      	bgt.n	8000518 <segment_display_function_settings+0x28>
 8000502:	4621      	mov	r1, r4
 8000504:	2001      	movs	r0, #1
 8000506:	f000 feeb 	bl	80012e0 <max7219_PrintItos>
 800050a:	b2e9      	uxtb	r1, r5
 800050c:	2201      	movs	r2, #1
 800050e:	e8bd 4038 	ldmia.w	sp!, {r3, r4, r5, lr}
 8000512:	2003      	movs	r0, #3
 8000514:	f000 beba 	b.w	800128c <max7219_PrintDigit>
 8000518:	f1a4 030a 	sub.w	r3, r4, #10
 800051c:	2b59      	cmp	r3, #89	; 0x59
 800051e:	d8f4      	bhi.n	800050a <segment_display_function_settings+0x1a>
 8000520:	4621      	mov	r1, r4
 8000522:	2002      	movs	r0, #2
 8000524:	e7ef      	b.n	8000506 <segment_display_function_settings+0x16>
	...

08000528 <display_menu>:
 8000528:	3801      	subs	r0, #1
 800052a:	b508      	push	{r3, lr}
 800052c:	2804      	cmp	r0, #4
 800052e:	d825      	bhi.n	800057c <display_menu+0x54>
 8000530:	e8df f000 	tbb	[pc, r0]
 8000534:	170e0a03 	.word	0x170e0a03
 8000538:	20          	.byte	0x20
 8000539:	00          	.byte	0x00
 800053a:	2001      	movs	r0, #1
 800053c:	4b10      	ldr	r3, [pc, #64]	; (8000580 <display_menu+0x58>)
 800053e:	7819      	ldrb	r1, [r3, #0]
 8000540:	e8bd 4008 	ldmia.w	sp!, {r3, lr}
 8000544:	f7ff bfd4 	b.w	80004f0 <segment_display_function_settings>
 8000548:	4b0e      	ldr	r3, [pc, #56]	; (8000584 <display_menu+0x5c>)
 800054a:	2002      	movs	r0, #2
 800054c:	7819      	ldrb	r1, [r3, #0]
 800054e:	e7f7      	b.n	8000540 <display_menu+0x18>
 8000550:	2112      	movs	r1, #18
 8000552:	2003      	movs	r0, #3
 8000554:	2201      	movs	r2, #1
 8000556:	f000 fe99 	bl	800128c <max7219_PrintDigit>
 800055a:	4b0b      	ldr	r3, [pc, #44]	; (8000588 <display_menu+0x60>)
 800055c:	2003      	movs	r0, #3
 800055e:	7819      	ldrb	r1, [r3, #0]
 8000560:	e7ee      	b.n	8000540 <display_menu+0x18>
 8000562:	2113      	movs	r1, #19
 8000564:	2003      	movs	r0, #3
 8000566:	2201      	movs	r2, #1
 8000568:	f000 fe90 	bl	800128c <max7219_PrintDigit>
 800056c:	4b07      	ldr	r3, [pc, #28]	; (800058c <display_menu+0x64>)
 800056e:	2004      	movs	r0, #4
 8000570:	7819      	ldrb	r1, [r3, #0]
 8000572:	e7e5      	b.n	8000540 <display_menu+0x18>
 8000574:	4b06      	ldr	r3, [pc, #24]	; (8000590 <display_menu+0x68>)
 8000576:	2005      	movs	r0, #5
 8000578:	7819      	ldrb	r1, [r3, #0]
 800057a:	e7e1      	b.n	8000540 <display_menu+0x18>
 800057c:	bd08      	pop	{r3, pc}
 800057e:	bf00      	nop
 8000580:	20000000 	.word	0x20000000
 8000584:	20000001 	.word	0x20000001
 8000588:	20000002 	.word	0x20000002
 800058c:	20000003 	.word	0x20000003
 8000590:	20000004 	.word	0x20000004

08000594 <get_function_duration>:
 8000594:	3801      	subs	r0, #1
 8000596:	2804      	cmp	r0, #4
 8000598:	d810      	bhi.n	80005bc <get_function_duration+0x28>
 800059a:	e8df f000 	tbb	[pc, r0]
 800059e:	0703      	.short	0x0703
 80005a0:	0b09      	.short	0x0b09
 80005a2:	0d          	.byte	0x0d
 80005a3:	00          	.byte	0x00
 80005a4:	4b06      	ldr	r3, [pc, #24]	; (80005c0 <get_function_duration+0x2c>)
 80005a6:	7818      	ldrb	r0, [r3, #0]
 80005a8:	b2c0      	uxtb	r0, r0
 80005aa:	4770      	bx	lr
 80005ac:	4b05      	ldr	r3, [pc, #20]	; (80005c4 <get_function_duration+0x30>)
 80005ae:	e7fa      	b.n	80005a6 <get_function_duration+0x12>
 80005b0:	4b05      	ldr	r3, [pc, #20]	; (80005c8 <get_function_duration+0x34>)
 80005b2:	e7f8      	b.n	80005a6 <get_function_duration+0x12>
 80005b4:	4b05      	ldr	r3, [pc, #20]	; (80005cc <get_function_duration+0x38>)
 80005b6:	e7f6      	b.n	80005a6 <get_function_duration+0x12>
 80005b8:	4b05      	ldr	r3, [pc, #20]	; (80005d0 <get_function_duration+0x3c>)
 80005ba:	e7f4      	b.n	80005a6 <get_function_duration+0x12>
 80005bc:	200a      	movs	r0, #10
 80005be:	4770      	bx	lr
 80005c0:	20000000 	.word	0x20000000
 80005c4:	20000001 	.word	0x20000001
 80005c8:	20000002 	.word	0x20000002
 80005cc:	20000003 	.word	0x20000003
 80005d0:	20000004 	.word	0x20000004

080005d4 <do_300ms_tick>:
 80005d4:	b508      	push	{r3, lr}
 80005d6:	4b06      	ldr	r3, [pc, #24]	; (80005f0 <do_300ms_tick+0x1c>)
 80005d8:	8818      	ldrh	r0, [r3, #0]
 80005da:	b280      	uxth	r0, r0
 80005dc:	f7ff fee4 	bl	80003a8 <store_credit_eeprom>
 80005e0:	e8bd 4008 	ldmia.w	sp!, {r3, lr}
 80005e4:	f44f 6100 	mov.w	r1, #2048	; 0x800
 80005e8:	4802      	ldr	r0, [pc, #8]	; (80005f4 <do_300ms_tick+0x20>)
 80005ea:	f001 ba7e 	b.w	8001aea <HAL_GPIO_TogglePin>
 80005ee:	bf00      	nop
 80005f0:	2000009e 	.word	0x2000009e
 80005f4:	40010800 	.word	0x40010800

080005f8 <init_display>:
 80005f8:	b508      	push	{r3, lr}
 80005fa:	f000 fe02 	bl	8001202 <max7219_DisableDisplayTest>
 80005fe:	2064      	movs	r0, #100	; 0x64
 8000600:	f001 f912 	bl	8001828 <HAL_Delay>
 8000604:	2005      	movs	r0, #5
 8000606:	f000 fe25 	bl	8001254 <max7219_Init>
 800060a:	e8bd 4008 	ldmia.w	sp!, {r3, lr}
 800060e:	f000 be35 	b.w	800127c <max7219_Decode_On>
	...

08000614 <reset_all_pins>:
 8000614:	b510      	push	{r4, lr}
 8000616:	4c13      	ldr	r4, [pc, #76]	; (8000664 <reset_all_pins+0x50>)
 8000618:	2200      	movs	r2, #0
 800061a:	2101      	movs	r1, #1
 800061c:	4620      	mov	r0, r4
 800061e:	f001 fa5f 	bl	8001ae0 <HAL_GPIO_WritePin>
 8000622:	2200      	movs	r2, #0
 8000624:	2102      	movs	r1, #2
 8000626:	4620      	mov	r0, r4
 8000628:	f001 fa5a 	bl	8001ae0 <HAL_GPIO_WritePin>
 800062c:	2200      	movs	r2, #0
 800062e:	f44f 7180 	mov.w	r1, #256	; 0x100
 8000632:	480d      	ldr	r0, [pc, #52]	; (8000668 <reset_all_pins+0x54>)
 8000634:	f001 fa54 	bl	8001ae0 <HAL_GPIO_WritePin>
 8000638:	2200      	movs	r2, #0
 800063a:	f44f 7180 	mov.w	r1, #256	; 0x100
 800063e:	4620      	mov	r0, r4
 8000640:	f001 fa4e 	bl	8001ae0 <HAL_GPIO_WritePin>
 8000644:	2200      	movs	r2, #0
 8000646:	f44f 7100 	mov.w	r1, #512	; 0x200
 800064a:	4620      	mov	r0, r4
 800064c:	f001 fa48 	bl	8001ae0 <HAL_GPIO_WritePin>
 8000650:	2200      	movs	r2, #0
 8000652:	f44f 5180 	mov.w	r1, #4096	; 0x1000
 8000656:	4620      	mov	r0, r4
 8000658:	f001 fa42 	bl	8001ae0 <HAL_GPIO_WritePin>
 800065c:	2200      	movs	r2, #0
 800065e:	4b03      	ldr	r3, [pc, #12]	; (800066c <reset_all_pins+0x58>)
 8000660:	701a      	strb	r2, [r3, #0]
 8000662:	bd10      	pop	{r4, pc}
 8000664:	40010c00 	.word	0x40010c00
 8000668:	40010800 	.word	0x40010800
 800066c:	200000a1 	.word	0x200000a1

08000670 <reset_all_state>:
 8000670:	b510      	push	{r4, lr}
 8000672:	2400      	movs	r4, #0
 8000674:	f7ff ffce 	bl	8000614 <reset_all_pins>
 8000678:	2201      	movs	r2, #1
 800067a:	4b0c      	ldr	r3, [pc, #48]	; (80006ac <reset_all_state+0x3c>)
 800067c:	701c      	strb	r4, [r3, #0]
 800067e:	4b0c      	ldr	r3, [pc, #48]	; (80006b0 <reset_all_state+0x40>)
 8000680:	801c      	strh	r4, [r3, #0]
 8000682:	4b0c      	ldr	r3, [pc, #48]	; (80006b4 <reset_all_state+0x44>)
 8000684:	701a      	strb	r2, [r3, #0]
 8000686:	4b0c      	ldr	r3, [pc, #48]	; (80006b8 <reset_all_state+0x48>)
 8000688:	701c      	strb	r4, [r3, #0]
 800068a:	4b0c      	ldr	r3, [pc, #48]	; (80006bc <reset_all_state+0x4c>)
 800068c:	701c      	strb	r4, [r3, #0]
 800068e:	f000 fdcf 	bl	8001230 <max7219_Turn_On>
 8000692:	f000 fdbb 	bl	800120c <max7219_Clean>
 8000696:	4b0a      	ldr	r3, [pc, #40]	; (80006c0 <reset_all_state+0x50>)
 8000698:	601c      	str	r4, [r3, #0]
 800069a:	4b0a      	ldr	r3, [pc, #40]	; (80006c4 <reset_all_state+0x54>)
 800069c:	601c      	str	r4, [r3, #0]
 800069e:	4b0a      	ldr	r3, [pc, #40]	; (80006c8 <reset_all_state+0x58>)
 80006a0:	601c      	str	r4, [r3, #0]
 80006a2:	4b0a      	ldr	r3, [pc, #40]	; (80006cc <reset_all_state+0x5c>)
 80006a4:	601c      	str	r4, [r3, #0]
 80006a6:	4b0a      	ldr	r3, [pc, #40]	; (80006d0 <reset_all_state+0x60>)
 80006a8:	601c      	str	r4, [r3, #0]
 80006aa:	bd10      	pop	{r4, pc}
 80006ac:	2000009c 	.word	0x2000009c
 80006b0:	2000009e 	.word	0x2000009e
 80006b4:	20000008 	.word	0x20000008
 80006b8:	200000ac 	.word	0x200000ac
 80006bc:	200000af 	.word	0x200000af
 80006c0:	200000c4 	.word	0x200000c4
 80006c4:	200000c0 	.word	0x200000c0
 80006c8:	200000b8 	.word	0x200000b8
 80006cc:	200000bc 	.word	0x200000bc
 80006d0:	200000b4 	.word	0x200000b4

080006d4 <decrease_credit>:
 80006d4:	b530      	push	{r4, r5, lr}
 80006d6:	4b1d      	ldr	r3, [pc, #116]	; (800074c <decrease_credit+0x78>)
 80006d8:	b08b      	sub	sp, #44	; 0x2c
 80006da:	781b      	ldrb	r3, [r3, #0]
 80006dc:	2b00      	cmp	r3, #0
 80006de:	d032      	beq.n	8000746 <decrease_credit+0x72>
 80006e0:	4d1b      	ldr	r5, [pc, #108]	; (8000750 <decrease_credit+0x7c>)
 80006e2:	491c      	ldr	r1, [pc, #112]	; (8000754 <decrease_credit+0x80>)
 80006e4:	782b      	ldrb	r3, [r5, #0]
 80006e6:	a801      	add	r0, sp, #4
 80006e8:	3301      	adds	r3, #1
 80006ea:	b2db      	uxtb	r3, r3
 80006ec:	702b      	strb	r3, [r5, #0]
 80006ee:	782a      	ldrb	r2, [r5, #0]
 80006f0:	f002 fbe8 	bl	8002ec4 <siprintf>
 80006f4:	a801      	add	r0, sp, #4
 80006f6:	f7ff fd29 	bl	800014c <strlen>
 80006fa:	f04f 33ff 	mov.w	r3, #4294967295	; 0xffffffff
 80006fe:	b282      	uxth	r2, r0
 8000700:	a901      	add	r1, sp, #4
 8000702:	4815      	ldr	r0, [pc, #84]	; (8000758 <decrease_credit+0x84>)
 8000704:	f002 fb56 	bl	8002db4 <HAL_UART_Transmit>
 8000708:	4b14      	ldr	r3, [pc, #80]	; (800075c <decrease_credit+0x88>)
 800070a:	4c15      	ldr	r4, [pc, #84]	; (8000760 <decrease_credit+0x8c>)
 800070c:	7818      	ldrb	r0, [r3, #0]
 800070e:	f7ff ff41 	bl	8000594 <get_function_duration>
 8000712:	782b      	ldrb	r3, [r5, #0]
 8000714:	4298      	cmp	r0, r3
 8000716:	d812      	bhi.n	800073e <decrease_credit+0x6a>
 8000718:	2300      	movs	r3, #0
 800071a:	2214      	movs	r2, #20
 800071c:	702b      	strb	r3, [r5, #0]
 800071e:	4911      	ldr	r1, [pc, #68]	; (8000764 <decrease_credit+0x90>)
 8000720:	f04f 33ff 	mov.w	r3, #4294967295	; 0xffffffff
 8000724:	480c      	ldr	r0, [pc, #48]	; (8000758 <decrease_credit+0x84>)
 8000726:	f002 fb45 	bl	8002db4 <HAL_UART_Transmit>
 800072a:	8823      	ldrh	r3, [r4, #0]
 800072c:	3b01      	subs	r3, #1
 800072e:	b29b      	uxth	r3, r3
 8000730:	8023      	strh	r3, [r4, #0]
 8000732:	8823      	ldrh	r3, [r4, #0]
 8000734:	b29b      	uxth	r3, r3
 8000736:	b913      	cbnz	r3, 800073e <decrease_credit+0x6a>
 8000738:	8023      	strh	r3, [r4, #0]
 800073a:	f7ff ff99 	bl	8000670 <reset_all_state>
 800073e:	8820      	ldrh	r0, [r4, #0]
 8000740:	b280      	uxth	r0, r0
 8000742:	f7ff fe31 	bl	80003a8 <store_credit_eeprom>
 8000746:	b00b      	add	sp, #44	; 0x2c
 8000748:	bd30      	pop	{r4, r5, pc}
 800074a:	bf00      	nop
 800074c:	2000009c 	.word	0x2000009c
 8000750:	200000a0 	.word	0x200000a0
 8000754:	08003780 	.word	0x08003780
 8000758:	200001d0 	.word	0x200001d0
 800075c:	200000af 	.word	0x200000af
 8000760:	2000009e 	.word	0x2000009e
 8000764:	08003799 	.word	0x08003799

08000768 <do_1sec_tick>:
 8000768:	b530      	push	{r4, r5, lr}
 800076a:	f04f 33ff 	mov.w	r3, #4294967295	; 0xffffffff
 800076e:	b08b      	sub	sp, #44	; 0x2c
 8000770:	220b      	movs	r2, #11
 8000772:	491c      	ldr	r1, [pc, #112]	; (80007e4 <do_1sec_tick+0x7c>)
 8000774:	481c      	ldr	r0, [pc, #112]	; (80007e8 <do_1sec_tick+0x80>)
 8000776:	f002 fb1d 	bl	8002db4 <HAL_UART_Transmit>
 800077a:	4b1c      	ldr	r3, [pc, #112]	; (80007ec <do_1sec_tick+0x84>)
 800077c:	491c      	ldr	r1, [pc, #112]	; (80007f0 <do_1sec_tick+0x88>)
 800077e:	881a      	ldrh	r2, [r3, #0]
 8000780:	4b1c      	ldr	r3, [pc, #112]	; (80007f4 <do_1sec_tick+0x8c>)
 8000782:	b292      	uxth	r2, r2
 8000784:	781b      	ldrb	r3, [r3, #0]
 8000786:	a801      	add	r0, sp, #4
 8000788:	f002 fb9c 	bl	8002ec4 <siprintf>
 800078c:	a801      	add	r0, sp, #4
 800078e:	f7ff fcdd 	bl	800014c <strlen>
 8000792:	4c19      	ldr	r4, [pc, #100]	; (80007f8 <do_1sec_tick+0x90>)
 8000794:	f04f 33ff 	mov.w	r3, #4294967295	; 0xffffffff
 8000798:	b282      	uxth	r2, r0
 800079a:	a901      	add	r1, sp, #4
 800079c:	4812      	ldr	r0, [pc, #72]	; (80007e8 <do_1sec_tick+0x80>)
 800079e:	f002 fb09 	bl	8002db4 <HAL_UART_Transmit>
 80007a2:	f7ff ff97 	bl	80006d4 <decrease_credit>
 80007a6:	6823      	ldr	r3, [r4, #0]
 80007a8:	3301      	adds	r3, #1
 80007aa:	6023      	str	r3, [r4, #0]
 80007ac:	6823      	ldr	r3, [r4, #0]
 80007ae:	2b04      	cmp	r3, #4
 80007b0:	dd15      	ble.n	80007de <do_1sec_tick+0x76>
 80007b2:	2500      	movs	r5, #0
 80007b4:	f000 fd25 	bl	8001202 <max7219_DisableDisplayTest>
 80007b8:	6025      	str	r5, [r4, #0]
 80007ba:	4c10      	ldr	r4, [pc, #64]	; (80007fc <do_1sec_tick+0x94>)
 80007bc:	4628      	mov	r0, r5
 80007be:	f7ff fd99 	bl	80002f4 <send_iot_status>
 80007c2:	7823      	ldrb	r3, [r4, #0]
 80007c4:	b11b      	cbz	r3, 80007ce <do_1sec_tick+0x66>
 80007c6:	7820      	ldrb	r0, [r4, #0]
 80007c8:	f7ff fd94 	bl	80002f4 <send_iot_status>
 80007cc:	7025      	strb	r5, [r4, #0]
 80007ce:	4c0c      	ldr	r4, [pc, #48]	; (8000800 <do_1sec_tick+0x98>)
 80007d0:	7823      	ldrb	r3, [r4, #0]
 80007d2:	b123      	cbz	r3, 80007de <do_1sec_tick+0x76>
 80007d4:	7820      	ldrb	r0, [r4, #0]
 80007d6:	f7ff fd8d 	bl	80002f4 <send_iot_status>
 80007da:	2300      	movs	r3, #0
 80007dc:	7023      	strb	r3, [r4, #0]
 80007de:	b00b      	add	sp, #44	; 0x2c
 80007e0:	bd30      	pop	{r4, r5, pc}
 80007e2:	bf00      	nop
 80007e4:	080037ae 	.word	0x080037ae
 80007e8:	200001d0 	.word	0x200001d0
 80007ec:	2000009e 	.word	0x2000009e
 80007f0:	080037ba 	.word	0x080037ba
 80007f4:	200000af 	.word	0x200000af
 80007f8:	200000a8 	.word	0x200000a8
 80007fc:	200000ad 	.word	0x200000ad
 8000800:	200000ae 	.word	0x200000ae

08000804 <set_output_to>:
 8000804:	b538      	push	{r3, r4, r5, lr}
 8000806:	4c20      	ldr	r4, [pc, #128]	; (8000888 <set_output_to+0x84>)
 8000808:	4605      	mov	r5, r0
 800080a:	7823      	ldrb	r3, [r4, #0]
 800080c:	4283      	cmp	r3, r0
 800080e:	d010      	beq.n	8000832 <set_output_to+0x2e>
 8000810:	3d01      	subs	r5, #1
 8000812:	f7ff feff 	bl	8000614 <reset_all_pins>
 8000816:	2d04      	cmp	r5, #4
 8000818:	d831      	bhi.n	800087e <set_output_to+0x7a>
 800081a:	e8df f005 	tbb	[pc, r5]
 800081e:	0b03      	.short	0x0b03
 8000820:	1a12      	.short	0x1a12
 8000822:	28          	.byte	0x28
 8000823:	00          	.byte	0x00
 8000824:	2201      	movs	r2, #1
 8000826:	4819      	ldr	r0, [pc, #100]	; (800088c <set_output_to+0x88>)
 8000828:	4611      	mov	r1, r2
 800082a:	f001 f959 	bl	8001ae0 <HAL_GPIO_WritePin>
 800082e:	2301      	movs	r3, #1
 8000830:	7023      	strb	r3, [r4, #0]
 8000832:	bd38      	pop	{r3, r4, r5, pc}
 8000834:	2201      	movs	r2, #1
 8000836:	2102      	movs	r1, #2
 8000838:	4814      	ldr	r0, [pc, #80]	; (800088c <set_output_to+0x88>)
 800083a:	f001 f951 	bl	8001ae0 <HAL_GPIO_WritePin>
 800083e:	2302      	movs	r3, #2
 8000840:	e7f6      	b.n	8000830 <set_output_to+0x2c>
 8000842:	2201      	movs	r2, #1
 8000844:	f44f 7180 	mov.w	r1, #256	; 0x100
 8000848:	4811      	ldr	r0, [pc, #68]	; (8000890 <set_output_to+0x8c>)
 800084a:	f001 f949 	bl	8001ae0 <HAL_GPIO_WritePin>
 800084e:	2303      	movs	r3, #3
 8000850:	e7ee      	b.n	8000830 <set_output_to+0x2c>
 8000852:	2201      	movs	r2, #1
 8000854:	f44f 7180 	mov.w	r1, #256	; 0x100
 8000858:	480c      	ldr	r0, [pc, #48]	; (800088c <set_output_to+0x88>)
 800085a:	f001 f941 	bl	8001ae0 <HAL_GPIO_WritePin>
 800085e:	2201      	movs	r2, #1
 8000860:	f44f 5180 	mov.w	r1, #4096	; 0x1000
 8000864:	4809      	ldr	r0, [pc, #36]	; (800088c <set_output_to+0x88>)
 8000866:	f001 f93b 	bl	8001ae0 <HAL_GPIO_WritePin>
 800086a:	2304      	movs	r3, #4
 800086c:	e7e0      	b.n	8000830 <set_output_to+0x2c>
 800086e:	2201      	movs	r2, #1
 8000870:	f44f 7100 	mov.w	r1, #512	; 0x200
 8000874:	4805      	ldr	r0, [pc, #20]	; (800088c <set_output_to+0x88>)
 8000876:	f001 f933 	bl	8001ae0 <HAL_GPIO_WritePin>
 800087a:	2305      	movs	r3, #5
 800087c:	e7d8      	b.n	8000830 <set_output_to+0x2c>
 800087e:	f7ff fec9 	bl	8000614 <reset_all_pins>
 8000882:	2300      	movs	r3, #0
 8000884:	e7d4      	b.n	8000830 <set_output_to+0x2c>
 8000886:	bf00      	nop
 8000888:	200000a1 	.word	0x200000a1
 800088c:	40010c00 	.word	0x40010c00
 8000890:	40010800 	.word	0x40010800

08000894 <do_operation>:
 8000894:	b508      	push	{r3, lr}
 8000896:	4b07      	ldr	r3, [pc, #28]	; (80008b4 <do_operation+0x20>)
 8000898:	7818      	ldrb	r0, [r3, #0]
 800089a:	f7ff ffb3 	bl	8000804 <set_output_to>
 800089e:	4b06      	ldr	r3, [pc, #24]	; (80008b8 <do_operation+0x24>)
 80008a0:	781a      	ldrb	r2, [r3, #0]
 80008a2:	4b06      	ldr	r3, [pc, #24]	; (80008bc <do_operation+0x28>)
 80008a4:	f002 01ff 	and.w	r1, r2, #255	; 0xff
 80008a8:	b112      	cbz	r2, 80008b0 <do_operation+0x1c>
 80008aa:	2201      	movs	r2, #1
 80008ac:	701a      	strb	r2, [r3, #0]
 80008ae:	bd08      	pop	{r3, pc}
 80008b0:	7019      	strb	r1, [r3, #0]
 80008b2:	e7fc      	b.n	80008ae <do_operation+0x1a>
 80008b4:	200000af 	.word	0x200000af
 80008b8:	200000a1 	.word	0x200000a1
 80008bc:	2000009c 	.word	0x2000009c

080008c0 <read_button>:
 80008c0:	b5f8      	push	{r3, r4, r5, r6, r7, lr}
 80008c2:	2108      	movs	r1, #8
 80008c4:	485c      	ldr	r0, [pc, #368]	; (8000a38 <read_button+0x178>)
 80008c6:	f001 f905 	bl	8001ad4 <HAL_GPIO_ReadPin>
 80008ca:	b198      	cbz	r0, 80008f4 <read_button+0x34>
 80008cc:	2082      	movs	r0, #130	; 0x82
 80008ce:	f000 ffab 	bl	8001828 <HAL_Delay>
 80008d2:	4c59      	ldr	r4, [pc, #356]	; (8000a38 <read_button+0x178>)
 80008d4:	2108      	movs	r1, #8
 80008d6:	4620      	mov	r0, r4
 80008d8:	f001 f8fc 	bl	8001ad4 <HAL_GPIO_ReadPin>
 80008dc:	2800      	cmp	r0, #0
 80008de:	d1f9      	bne.n	80008d4 <read_button+0x14>
 80008e0:	f04f 33ff 	mov.w	r3, #4294967295	; 0xffffffff
 80008e4:	2212      	movs	r2, #18
 80008e6:	4955      	ldr	r1, [pc, #340]	; (8000a3c <read_button+0x17c>)
 80008e8:	4855      	ldr	r0, [pc, #340]	; (8000a40 <read_button+0x180>)
 80008ea:	f002 fa63 	bl	8002db4 <HAL_UART_Transmit>
 80008ee:	2401      	movs	r4, #1
 80008f0:	4620      	mov	r0, r4
 80008f2:	bdf8      	pop	{r3, r4, r5, r6, r7, pc}
 80008f4:	2110      	movs	r1, #16
 80008f6:	4850      	ldr	r0, [pc, #320]	; (8000a38 <read_button+0x178>)
 80008f8:	f001 f8ec 	bl	8001ad4 <HAL_GPIO_ReadPin>
 80008fc:	b190      	cbz	r0, 8000924 <read_button+0x64>
 80008fe:	2082      	movs	r0, #130	; 0x82
 8000900:	f000 ff92 	bl	8001828 <HAL_Delay>
 8000904:	4c4c      	ldr	r4, [pc, #304]	; (8000a38 <read_button+0x178>)
 8000906:	2110      	movs	r1, #16
 8000908:	4620      	mov	r0, r4
 800090a:	f001 f8e3 	bl	8001ad4 <HAL_GPIO_ReadPin>
 800090e:	2800      	cmp	r0, #0
 8000910:	d1f9      	bne.n	8000906 <read_button+0x46>
 8000912:	f04f 33ff 	mov.w	r3, #4294967295	; 0xffffffff
 8000916:	2212      	movs	r2, #18
 8000918:	494a      	ldr	r1, [pc, #296]	; (8000a44 <read_button+0x184>)
 800091a:	4849      	ldr	r0, [pc, #292]	; (8000a40 <read_button+0x180>)
 800091c:	f002 fa4a 	bl	8002db4 <HAL_UART_Transmit>
 8000920:	2402      	movs	r4, #2
 8000922:	e7e5      	b.n	80008f0 <read_button+0x30>
 8000924:	2120      	movs	r1, #32
 8000926:	4844      	ldr	r0, [pc, #272]	; (8000a38 <read_button+0x178>)
 8000928:	f001 f8d4 	bl	8001ad4 <HAL_GPIO_ReadPin>
 800092c:	b190      	cbz	r0, 8000954 <read_button+0x94>
 800092e:	2082      	movs	r0, #130	; 0x82
 8000930:	f000 ff7a 	bl	8001828 <HAL_Delay>
 8000934:	4c40      	ldr	r4, [pc, #256]	; (8000a38 <read_button+0x178>)
 8000936:	2120      	movs	r1, #32
 8000938:	4620      	mov	r0, r4
 800093a:	f001 f8cb 	bl	8001ad4 <HAL_GPIO_ReadPin>
 800093e:	2800      	cmp	r0, #0
 8000940:	d1f9      	bne.n	8000936 <read_button+0x76>
 8000942:	f04f 33ff 	mov.w	r3, #4294967295	; 0xffffffff
 8000946:	2212      	movs	r2, #18
 8000948:	493f      	ldr	r1, [pc, #252]	; (8000a48 <read_button+0x188>)
 800094a:	483d      	ldr	r0, [pc, #244]	; (8000a40 <read_button+0x180>)
 800094c:	f002 fa32 	bl	8002db4 <HAL_UART_Transmit>
 8000950:	2403      	movs	r4, #3
 8000952:	e7cd      	b.n	80008f0 <read_button+0x30>
 8000954:	2140      	movs	r1, #64	; 0x40
 8000956:	4838      	ldr	r0, [pc, #224]	; (8000a38 <read_button+0x178>)
 8000958:	f001 f8bc 	bl	8001ad4 <HAL_GPIO_ReadPin>
 800095c:	4604      	mov	r4, r0
 800095e:	b190      	cbz	r0, 8000986 <read_button+0xc6>
 8000960:	2082      	movs	r0, #130	; 0x82
 8000962:	f000 ff61 	bl	8001828 <HAL_Delay>
 8000966:	4c34      	ldr	r4, [pc, #208]	; (8000a38 <read_button+0x178>)
 8000968:	2140      	movs	r1, #64	; 0x40
 800096a:	4620      	mov	r0, r4
 800096c:	f001 f8b2 	bl	8001ad4 <HAL_GPIO_ReadPin>
 8000970:	2800      	cmp	r0, #0
 8000972:	d1f9      	bne.n	8000968 <read_button+0xa8>
 8000974:	f04f 33ff 	mov.w	r3, #4294967295	; 0xffffffff
 8000978:	2212      	movs	r2, #18
 800097a:	4934      	ldr	r1, [pc, #208]	; (8000a4c <read_button+0x18c>)
 800097c:	4830      	ldr	r0, [pc, #192]	; (8000a40 <read_button+0x180>)
 800097e:	f002 fa19 	bl	8002db4 <HAL_UART_Transmit>
 8000982:	2404      	movs	r4, #4
 8000984:	e7b4      	b.n	80008f0 <read_button+0x30>
 8000986:	2180      	movs	r1, #128	; 0x80
 8000988:	482b      	ldr	r0, [pc, #172]	; (8000a38 <read_button+0x178>)
 800098a:	f001 f8a3 	bl	8001ad4 <HAL_GPIO_ReadPin>
 800098e:	b1e8      	cbz	r0, 80009cc <read_button+0x10c>
 8000990:	2082      	movs	r0, #130	; 0x82
 8000992:	f000 ff49 	bl	8001828 <HAL_Delay>
 8000996:	2201      	movs	r2, #1
 8000998:	4d2d      	ldr	r5, [pc, #180]	; (8000a50 <read_button+0x190>)
 800099a:	4e27      	ldr	r6, [pc, #156]	; (8000a38 <read_button+0x178>)
 800099c:	4f2d      	ldr	r7, [pc, #180]	; (8000a54 <read_button+0x194>)
 800099e:	702a      	strb	r2, [r5, #0]
 80009a0:	2180      	movs	r1, #128	; 0x80
 80009a2:	4630      	mov	r0, r6
 80009a4:	f001 f896 	bl	8001ad4 <HAL_GPIO_ReadPin>
 80009a8:	b948      	cbnz	r0, 80009be <read_button+0xfe>
 80009aa:	7028      	strb	r0, [r5, #0]
 80009ac:	f04f 33ff 	mov.w	r3, #4294967295	; 0xffffffff
 80009b0:	2212      	movs	r2, #18
 80009b2:	4929      	ldr	r1, [pc, #164]	; (8000a58 <read_button+0x198>)
 80009b4:	4822      	ldr	r0, [pc, #136]	; (8000a40 <read_button+0x180>)
 80009b6:	f002 f9fd 	bl	8002db4 <HAL_UART_Transmit>
 80009ba:	2405      	movs	r4, #5
 80009bc:	e798      	b.n	80008f0 <read_button+0x30>
 80009be:	883b      	ldrh	r3, [r7, #0]
 80009c0:	b29b      	uxth	r3, r3
 80009c2:	2b3b      	cmp	r3, #59	; 0x3b
 80009c4:	d9ec      	bls.n	80009a0 <read_button+0xe0>
 80009c6:	f7ff fe53 	bl	8000670 <reset_all_state>
 80009ca:	e791      	b.n	80008f0 <read_button+0x30>
 80009cc:	f44f 4100 	mov.w	r1, #32768	; 0x8000
 80009d0:	4819      	ldr	r0, [pc, #100]	; (8000a38 <read_button+0x178>)
 80009d2:	f001 f87f 	bl	8001ad4 <HAL_GPIO_ReadPin>
 80009d6:	b198      	cbz	r0, 8000a00 <read_button+0x140>
 80009d8:	2082      	movs	r0, #130	; 0x82
 80009da:	f000 ff25 	bl	8001828 <HAL_Delay>
 80009de:	4c16      	ldr	r4, [pc, #88]	; (8000a38 <read_button+0x178>)
 80009e0:	f44f 4100 	mov.w	r1, #32768	; 0x8000
 80009e4:	4620      	mov	r0, r4
 80009e6:	f001 f875 	bl	8001ad4 <HAL_GPIO_ReadPin>
 80009ea:	2800      	cmp	r0, #0
 80009ec:	d1f8      	bne.n	80009e0 <read_button+0x120>
 80009ee:	f04f 33ff 	mov.w	r3, #4294967295	; 0xffffffff
 80009f2:	221e      	movs	r2, #30
 80009f4:	4919      	ldr	r1, [pc, #100]	; (8000a5c <read_button+0x19c>)
 80009f6:	4812      	ldr	r0, [pc, #72]	; (8000a40 <read_button+0x180>)
 80009f8:	f002 f9dc 	bl	8002db4 <HAL_UART_Transmit>
 80009fc:	2406      	movs	r4, #6
 80009fe:	e777      	b.n	80008f0 <read_button+0x30>
 8000a00:	2104      	movs	r1, #4
 8000a02:	480d      	ldr	r0, [pc, #52]	; (8000a38 <read_button+0x178>)
 8000a04:	f001 f866 	bl	8001ad4 <HAL_GPIO_ReadPin>
 8000a08:	4604      	mov	r4, r0
 8000a0a:	2800      	cmp	r0, #0
 8000a0c:	f43f af70 	beq.w	80008f0 <read_button+0x30>
 8000a10:	2082      	movs	r0, #130	; 0x82
 8000a12:	f000 ff09 	bl	8001828 <HAL_Delay>
 8000a16:	4c08      	ldr	r4, [pc, #32]	; (8000a38 <read_button+0x178>)
 8000a18:	2104      	movs	r1, #4
 8000a1a:	4620      	mov	r0, r4
 8000a1c:	f001 f85a 	bl	8001ad4 <HAL_GPIO_ReadPin>
 8000a20:	2800      	cmp	r0, #0
 8000a22:	d1f9      	bne.n	8000a18 <read_button+0x158>
 8000a24:	f04f 33ff 	mov.w	r3, #4294967295	; 0xffffffff
 8000a28:	2216      	movs	r2, #22
 8000a2a:	490d      	ldr	r1, [pc, #52]	; (8000a60 <read_button+0x1a0>)
 8000a2c:	4804      	ldr	r0, [pc, #16]	; (8000a40 <read_button+0x180>)
 8000a2e:	f002 f9c1 	bl	8002db4 <HAL_UART_Transmit>
 8000a32:	2407      	movs	r4, #7
 8000a34:	e75c      	b.n	80008f0 <read_button+0x30>
 8000a36:	bf00      	nop
 8000a38:	40010800 	.word	0x40010800
 8000a3c:	080037de 	.word	0x080037de
 8000a40:	200001d0 	.word	0x200001d0
 8000a44:	080037f1 	.word	0x080037f1
 8000a48:	08003804 	.word	0x08003804
 8000a4c:	08003817 	.word	0x08003817
 8000a50:	200000a6 	.word	0x200000a6
 8000a54:	200000a4 	.word	0x200000a4
 8000a58:	0800382a 	.word	0x0800382a
 8000a5c:	0800383d 	.word	0x0800383d
 8000a60:	0800385c 	.word	0x0800385c

08000a64 <setting_menu_loop>:
 8000a64:	b510      	push	{r4, lr}
 8000a66:	f7ff fe03 	bl	8000670 <reset_all_state>
 8000a6a:	2200      	movs	r2, #0
 8000a6c:	4b11      	ldr	r3, [pc, #68]	; (8000ab4 <setting_menu_loop+0x50>)
 8000a6e:	4c12      	ldr	r4, [pc, #72]	; (8000ab8 <setting_menu_loop+0x54>)
 8000a70:	701a      	strb	r2, [r3, #0]
 8000a72:	7823      	ldrb	r3, [r4, #0]
 8000a74:	b903      	cbnz	r3, 8000a78 <setting_menu_loop+0x14>
 8000a76:	bd10      	pop	{r4, pc}
 8000a78:	f7ff ff22 	bl	80008c0 <read_button>
 8000a7c:	2807      	cmp	r0, #7
 8000a7e:	d10c      	bne.n	8000a9a <setting_menu_loop+0x36>
 8000a80:	7823      	ldrb	r3, [r4, #0]
 8000a82:	3301      	adds	r3, #1
 8000a84:	b2db      	uxtb	r3, r3
 8000a86:	7023      	strb	r3, [r4, #0]
 8000a88:	7823      	ldrb	r3, [r4, #0]
 8000a8a:	2b05      	cmp	r3, #5
 8000a8c:	d9f1      	bls.n	8000a72 <setting_menu_loop+0xe>
 8000a8e:	2300      	movs	r3, #0
 8000a90:	7023      	strb	r3, [r4, #0]
 8000a92:	e8bd 4010 	ldmia.w	sp!, {r4, lr}
 8000a96:	f7ff bdeb 	b.w	8000670 <reset_all_state>
 8000a9a:	2801      	cmp	r0, #1
 8000a9c:	d103      	bne.n	8000aa6 <setting_menu_loop+0x42>
 8000a9e:	7820      	ldrb	r0, [r4, #0]
 8000aa0:	f7ff fc8e 	bl	80003c0 <set_add_duration_of_function>
 8000aa4:	e7e5      	b.n	8000a72 <setting_menu_loop+0xe>
 8000aa6:	2802      	cmp	r0, #2
 8000aa8:	d1e3      	bne.n	8000a72 <setting_menu_loop+0xe>
 8000aaa:	7820      	ldrb	r0, [r4, #0]
 8000aac:	f7ff fcd6 	bl	800045c <set_substract_duration_of_function>
 8000ab0:	e7df      	b.n	8000a72 <setting_menu_loop+0xe>
 8000ab2:	bf00      	nop
 8000ab4:	20000008 	.word	0x20000008
 8000ab8:	200000b0 	.word	0x200000b0

08000abc <segment_display_int>:
 8000abc:	b510      	push	{r4, lr}
 8000abe:	4604      	mov	r4, r0
 8000ac0:	f000 fbbf 	bl	8001242 <max7219_Turn_Off>
 8000ac4:	2005      	movs	r0, #5
 8000ac6:	f000 fbc5 	bl	8001254 <max7219_Init>
 8000aca:	f000 fb9f 	bl	800120c <max7219_Clean>
 8000ace:	f000 fbd5 	bl	800127c <max7219_Decode_On>
 8000ad2:	f000 fb9b 	bl	800120c <max7219_Clean>
 8000ad6:	2c09      	cmp	r4, #9
 8000ad8:	dc05      	bgt.n	8000ae6 <segment_display_int+0x2a>
 8000ada:	4621      	mov	r1, r4
 8000adc:	2001      	movs	r0, #1
 8000ade:	e8bd 4010 	ldmia.w	sp!, {r4, lr}
 8000ae2:	f000 bbfd 	b.w	80012e0 <max7219_PrintItos>
 8000ae6:	f1a4 030a 	sub.w	r3, r4, #10
 8000aea:	2b59      	cmp	r3, #89	; 0x59
 8000aec:	4621      	mov	r1, r4
 8000aee:	bf94      	ite	ls
 8000af0:	2002      	movls	r0, #2
 8000af2:	2003      	movhi	r0, #3
 8000af4:	e7f3      	b.n	8000ade <segment_display_int+0x22>
	...

08000af8 <do_400ms_tick>:
 8000af8:	b508      	push	{r3, lr}
 8000afa:	4b0f      	ldr	r3, [pc, #60]	; (8000b38 <do_400ms_tick+0x40>)
 8000afc:	781b      	ldrb	r3, [r3, #0]
 8000afe:	b1b3      	cbz	r3, 8000b2e <do_400ms_tick+0x36>
 8000b00:	4b0e      	ldr	r3, [pc, #56]	; (8000b3c <do_400ms_tick+0x44>)
 8000b02:	781a      	ldrb	r2, [r3, #0]
 8000b04:	f082 0201 	eor.w	r2, r2, #1
 8000b08:	701a      	strb	r2, [r3, #0]
 8000b0a:	781b      	ldrb	r3, [r3, #0]
 8000b0c:	b133      	cbz	r3, 8000b1c <do_400ms_tick+0x24>
 8000b0e:	4b0c      	ldr	r3, [pc, #48]	; (8000b40 <do_400ms_tick+0x48>)
 8000b10:	781b      	ldrb	r3, [r3, #0]
 8000b12:	b11b      	cbz	r3, 8000b1c <do_400ms_tick+0x24>
 8000b14:	e8bd 4008 	ldmia.w	sp!, {r3, lr}
 8000b18:	f000 bb93 	b.w	8001242 <max7219_Turn_Off>
 8000b1c:	f000 fb88 	bl	8001230 <max7219_Turn_On>
 8000b20:	4b08      	ldr	r3, [pc, #32]	; (8000b44 <do_400ms_tick+0x4c>)
 8000b22:	8818      	ldrh	r0, [r3, #0]
 8000b24:	e8bd 4008 	ldmia.w	sp!, {r3, lr}
 8000b28:	b280      	uxth	r0, r0
 8000b2a:	f7ff bfc7 	b.w	8000abc <segment_display_int>
 8000b2e:	e8bd 4008 	ldmia.w	sp!, {r3, lr}
 8000b32:	f000 bb7d 	b.w	8001230 <max7219_Turn_On>
 8000b36:	bf00      	nop
 8000b38:	200000ac 	.word	0x200000ac
 8000b3c:	200000a2 	.word	0x200000a2
 8000b40:	200000a1 	.word	0x200000a1
 8000b44:	2000009e 	.word	0x2000009e

08000b48 <segment_display_standby>:
 8000b48:	b510      	push	{r4, lr}
 8000b4a:	4c21      	ldr	r4, [pc, #132]	; (8000bd0 <segment_display_standby+0x88>)
 8000b4c:	f000 fb5e 	bl	800120c <max7219_Clean>
 8000b50:	f000 fb94 	bl	800127c <max7219_Decode_On>
 8000b54:	f000 fb5a 	bl	800120c <max7219_Clean>
 8000b58:	7823      	ldrb	r3, [r4, #0]
 8000b5a:	2b03      	cmp	r3, #3
 8000b5c:	d830      	bhi.n	8000bc0 <segment_display_standby+0x78>
 8000b5e:	e8df f003 	tbb	[pc, r3]
 8000b62:	1a02      	.short	0x1a02
 8000b64:	1a22      	.short	0x1a22
 8000b66:	2200      	movs	r2, #0
 8000b68:	210a      	movs	r1, #10
 8000b6a:	2001      	movs	r0, #1
 8000b6c:	f000 fb8e 	bl	800128c <max7219_PrintDigit>
 8000b70:	2200      	movs	r2, #0
 8000b72:	210f      	movs	r1, #15
 8000b74:	2002      	movs	r0, #2
 8000b76:	f000 fb89 	bl	800128c <max7219_PrintDigit>
 8000b7a:	2200      	movs	r2, #0
 8000b7c:	210f      	movs	r1, #15
 8000b7e:	2003      	movs	r0, #3
 8000b80:	f000 fb84 	bl	800128c <max7219_PrintDigit>
 8000b84:	7823      	ldrb	r3, [r4, #0]
 8000b86:	2b02      	cmp	r3, #2
 8000b88:	bf8f      	iteee	hi
 8000b8a:	2300      	movhi	r3, #0
 8000b8c:	7823      	ldrbls	r3, [r4, #0]
 8000b8e:	3301      	addls	r3, #1
 8000b90:	b2db      	uxtbls	r3, r3
 8000b92:	7023      	strb	r3, [r4, #0]
 8000b94:	bd10      	pop	{r4, pc}
 8000b96:	2200      	movs	r2, #0
 8000b98:	210f      	movs	r1, #15
 8000b9a:	2001      	movs	r0, #1
 8000b9c:	f000 fb76 	bl	800128c <max7219_PrintDigit>
 8000ba0:	2200      	movs	r2, #0
 8000ba2:	210a      	movs	r1, #10
 8000ba4:	e7e6      	b.n	8000b74 <segment_display_standby+0x2c>
 8000ba6:	2200      	movs	r2, #0
 8000ba8:	210f      	movs	r1, #15
 8000baa:	2001      	movs	r0, #1
 8000bac:	f000 fb6e 	bl	800128c <max7219_PrintDigit>
 8000bb0:	2200      	movs	r2, #0
 8000bb2:	210f      	movs	r1, #15
 8000bb4:	2002      	movs	r0, #2
 8000bb6:	f000 fb69 	bl	800128c <max7219_PrintDigit>
 8000bba:	2200      	movs	r2, #0
 8000bbc:	210a      	movs	r1, #10
 8000bbe:	e7de      	b.n	8000b7e <segment_display_standby+0x36>
 8000bc0:	2200      	movs	r2, #0
 8000bc2:	210a      	movs	r1, #10
 8000bc4:	2001      	movs	r0, #1
 8000bc6:	f000 fb61 	bl	800128c <max7219_PrintDigit>
 8000bca:	2200      	movs	r2, #0
 8000bcc:	210a      	movs	r1, #10
 8000bce:	e7f1      	b.n	8000bb4 <segment_display_standby+0x6c>
 8000bd0:	200000b1 	.word	0x200000b1

08000bd4 <do_200ms_tick>:
 8000bd4:	4b08      	ldr	r3, [pc, #32]	; (8000bf8 <do_200ms_tick+0x24>)
 8000bd6:	4a09      	ldr	r2, [pc, #36]	; (8000bfc <do_200ms_tick+0x28>)
 8000bd8:	781b      	ldrb	r3, [r3, #0]
 8000bda:	f003 01ff 	and.w	r1, r3, #255	; 0xff
 8000bde:	b143      	cbz	r3, 8000bf2 <do_200ms_tick+0x1e>
 8000be0:	8813      	ldrh	r3, [r2, #0]
 8000be2:	3301      	adds	r3, #1
 8000be4:	b29b      	uxth	r3, r3
 8000be6:	8013      	strh	r3, [r2, #0]
 8000be8:	4b05      	ldr	r3, [pc, #20]	; (8000c00 <do_200ms_tick+0x2c>)
 8000bea:	781b      	ldrb	r3, [r3, #0]
 8000bec:	b11b      	cbz	r3, 8000bf6 <do_200ms_tick+0x22>
 8000bee:	f7ff bfab 	b.w	8000b48 <segment_display_standby>
 8000bf2:	8011      	strh	r1, [r2, #0]
 8000bf4:	e7f8      	b.n	8000be8 <do_200ms_tick+0x14>
 8000bf6:	4770      	bx	lr
 8000bf8:	200000a6 	.word	0x200000a6
 8000bfc:	200000a4 	.word	0x200000a4
 8000c00:	20000008 	.word	0x20000008

08000c04 <HAL_TIM_PeriodElapsedCallback>:
 8000c04:	6803      	ldr	r3, [r0, #0]
 8000c06:	e92d 41f0 	stmdb	sp!, {r4, r5, r6, r7, r8, lr}
 8000c0a:	f1b3 4f80 	cmp.w	r3, #1073741824	; 0x40000000
 8000c0e:	d14b      	bne.n	8000ca8 <HAL_TIM_PeriodElapsedCallback+0xa4>
 8000c10:	260a      	movs	r6, #10
 8000c12:	4b26      	ldr	r3, [pc, #152]	; (8000cac <HAL_TIM_PeriodElapsedCallback+0xa8>)
 8000c14:	4c26      	ldr	r4, [pc, #152]	; (8000cb0 <HAL_TIM_PeriodElapsedCallback+0xac>)
 8000c16:	681a      	ldr	r2, [r3, #0]
 8000c18:	4d26      	ldr	r5, [pc, #152]	; (8000cb4 <HAL_TIM_PeriodElapsedCallback+0xb0>)
 8000c1a:	3201      	adds	r2, #1
 8000c1c:	601a      	str	r2, [r3, #0]
 8000c1e:	6822      	ldr	r2, [r4, #0]
 8000c20:	4698      	mov	r8, r3
 8000c22:	3201      	adds	r2, #1
 8000c24:	6022      	str	r2, [r4, #0]
 8000c26:	682a      	ldr	r2, [r5, #0]
 8000c28:	3201      	adds	r2, #1
 8000c2a:	602a      	str	r2, [r5, #0]
 8000c2c:	4a22      	ldr	r2, [pc, #136]	; (8000cb8 <HAL_TIM_PeriodElapsedCallback+0xb4>)
 8000c2e:	6811      	ldr	r1, [r2, #0]
 8000c30:	3101      	adds	r1, #1
 8000c32:	6011      	str	r1, [r2, #0]
 8000c34:	4921      	ldr	r1, [pc, #132]	; (8000cbc <HAL_TIM_PeriodElapsedCallback+0xb8>)
 8000c36:	6808      	ldr	r0, [r1, #0]
 8000c38:	3001      	adds	r0, #1
 8000c3a:	6008      	str	r0, [r1, #0]
 8000c3c:	681f      	ldr	r7, [r3, #0]
 8000c3e:	fb97 f0f6 	sdiv	r0, r7, r6
 8000c42:	fb06 7010 	mls	r0, r6, r0, r7
 8000c46:	4627      	mov	r7, r4
 8000c48:	460e      	mov	r6, r1
 8000c4a:	4614      	mov	r4, r2
 8000c4c:	b938      	cbnz	r0, 8000c5e <HAL_TIM_PeriodElapsedCallback+0x5a>
 8000c4e:	4b1c      	ldr	r3, [pc, #112]	; (8000cc0 <HAL_TIM_PeriodElapsedCallback+0xbc>)
 8000c50:	781a      	ldrb	r2, [r3, #0]
 8000c52:	b122      	cbz	r2, 8000c5e <HAL_TIM_PeriodElapsedCallback+0x5a>
 8000c54:	4a1b      	ldr	r2, [pc, #108]	; (8000cc4 <HAL_TIM_PeriodElapsedCallback+0xc0>)
 8000c56:	7010      	strb	r0, [r2, #0]
 8000c58:	7818      	ldrb	r0, [r3, #0]
 8000c5a:	f7ff fc65 	bl	8000528 <display_menu>
 8000c5e:	f8d8 3000 	ldr.w	r3, [r8]
 8000c62:	2b63      	cmp	r3, #99	; 0x63
 8000c64:	dd04      	ble.n	8000c70 <HAL_TIM_PeriodElapsedCallback+0x6c>
 8000c66:	2300      	movs	r3, #0
 8000c68:	f8c8 3000 	str.w	r3, [r8]
 8000c6c:	f7ff fd7c 	bl	8000768 <do_1sec_tick>
 8000c70:	683b      	ldr	r3, [r7, #0]
 8000c72:	2b31      	cmp	r3, #49	; 0x31
 8000c74:	bfc4      	itt	gt
 8000c76:	2300      	movgt	r3, #0
 8000c78:	603b      	strgt	r3, [r7, #0]
 8000c7a:	6833      	ldr	r3, [r6, #0]
 8000c7c:	2b13      	cmp	r3, #19
 8000c7e:	dd03      	ble.n	8000c88 <HAL_TIM_PeriodElapsedCallback+0x84>
 8000c80:	2300      	movs	r3, #0
 8000c82:	6033      	str	r3, [r6, #0]
 8000c84:	f7ff ffa6 	bl	8000bd4 <do_200ms_tick>
 8000c88:	682b      	ldr	r3, [r5, #0]
 8000c8a:	2b1d      	cmp	r3, #29
 8000c8c:	dd03      	ble.n	8000c96 <HAL_TIM_PeriodElapsedCallback+0x92>
 8000c8e:	2300      	movs	r3, #0
 8000c90:	602b      	str	r3, [r5, #0]
 8000c92:	f7ff fc9f 	bl	80005d4 <do_300ms_tick>
 8000c96:	6823      	ldr	r3, [r4, #0]
 8000c98:	2b27      	cmp	r3, #39	; 0x27
 8000c9a:	dd05      	ble.n	8000ca8 <HAL_TIM_PeriodElapsedCallback+0xa4>
 8000c9c:	2300      	movs	r3, #0
 8000c9e:	6023      	str	r3, [r4, #0]
 8000ca0:	e8bd 41f0 	ldmia.w	sp!, {r4, r5, r6, r7, r8, lr}
 8000ca4:	f7ff bf28 	b.w	8000af8 <do_400ms_tick>
 8000ca8:	e8bd 81f0 	ldmia.w	sp!, {r4, r5, r6, r7, r8, pc}
 8000cac:	200000c4 	.word	0x200000c4
 8000cb0:	200000c0 	.word	0x200000c0
 8000cb4:	200000b8 	.word	0x200000b8
 8000cb8:	200000bc 	.word	0x200000bc
 8000cbc:	200000b4 	.word	0x200000b4
 8000cc0:	200000b0 	.word	0x200000b0
 8000cc4:	20000008 	.word	0x20000008

08000cc8 <add_bank_note_credit>:
 8000cc8:	b530      	push	{r4, r5, lr}
 8000cca:	4d2c      	ldr	r5, [pc, #176]	; (8000d7c <add_bank_note_credit+0xb4>)
 8000ccc:	b095      	sub	sp, #84	; 0x54
 8000cce:	782a      	ldrb	r2, [r5, #0]
 8000cd0:	492b      	ldr	r1, [pc, #172]	; (8000d80 <add_bank_note_credit+0xb8>)
 8000cd2:	a80a      	add	r0, sp, #40	; 0x28
 8000cd4:	f002 f8f6 	bl	8002ec4 <siprintf>
 8000cd8:	a80a      	add	r0, sp, #40	; 0x28
 8000cda:	f7ff fa37 	bl	800014c <strlen>
 8000cde:	4c29      	ldr	r4, [pc, #164]	; (8000d84 <add_bank_note_credit+0xbc>)
 8000ce0:	b282      	uxth	r2, r0
 8000ce2:	f04f 33ff 	mov.w	r3, #4294967295	; 0xffffffff
 8000ce6:	a90a      	add	r1, sp, #40	; 0x28
 8000ce8:	4827      	ldr	r0, [pc, #156]	; (8000d88 <add_bank_note_credit+0xc0>)
 8000cea:	f002 f863 	bl	8002db4 <HAL_UART_Transmit>
 8000cee:	782b      	ldrb	r3, [r5, #0]
 8000cf0:	8822      	ldrh	r2, [r4, #0]
 8000cf2:	4413      	add	r3, r2
 8000cf4:	2200      	movs	r2, #0
 8000cf6:	b29b      	uxth	r3, r3
 8000cf8:	8023      	strh	r3, [r4, #0]
 8000cfa:	4b24      	ldr	r3, [pc, #144]	; (8000d8c <add_bank_note_credit+0xc4>)
 8000cfc:	601a      	str	r2, [r3, #0]
 8000cfe:	4a24      	ldr	r2, [pc, #144]	; (8000d90 <add_bank_note_credit+0xc8>)
 8000d00:	7829      	ldrb	r1, [r5, #0]
 8000d02:	7813      	ldrb	r3, [r2, #0]
 8000d04:	440b      	add	r3, r1
 8000d06:	b2db      	uxtb	r3, r3
 8000d08:	7013      	strb	r3, [r2, #0]
 8000d0a:	f240 32e6 	movw	r2, #998	; 0x3e6
 8000d0e:	8823      	ldrh	r3, [r4, #0]
 8000d10:	b29b      	uxth	r3, r3
 8000d12:	4293      	cmp	r3, r2
 8000d14:	bf84      	itt	hi
 8000d16:	f240 33e7 	movwhi	r3, #999	; 0x3e7
 8000d1a:	8023      	strhhi	r3, [r4, #0]
 8000d1c:	8820      	ldrh	r0, [r4, #0]
 8000d1e:	b280      	uxth	r0, r0
 8000d20:	f7ff fb42 	bl	80003a8 <store_credit_eeprom>
 8000d24:	f000 fa84 	bl	8001230 <max7219_Turn_On>
 8000d28:	8820      	ldrh	r0, [r4, #0]
 8000d2a:	b280      	uxth	r0, r0
 8000d2c:	f7ff fec6 	bl	8000abc <segment_display_int>
 8000d30:	2200      	movs	r2, #0
 8000d32:	4b18      	ldr	r3, [pc, #96]	; (8000d94 <add_bank_note_credit+0xcc>)
 8000d34:	701a      	strb	r2, [r3, #0]
 8000d36:	4a18      	ldr	r2, [pc, #96]	; (8000d98 <add_bank_note_credit+0xd0>)
 8000d38:	8823      	ldrh	r3, [r4, #0]
 8000d3a:	6812      	ldr	r2, [r2, #0]
 8000d3c:	b29b      	uxth	r3, r3
 8000d3e:	4293      	cmp	r3, r2
 8000d40:	db09      	blt.n	8000d56 <add_bank_note_credit+0x8e>
 8000d42:	2201      	movs	r2, #1
 8000d44:	4b15      	ldr	r3, [pc, #84]	; (8000d9c <add_bank_note_credit+0xd4>)
 8000d46:	4916      	ldr	r1, [pc, #88]	; (8000da0 <add_bank_note_credit+0xd8>)
 8000d48:	701a      	strb	r2, [r3, #0]
 8000d4a:	480f      	ldr	r0, [pc, #60]	; (8000d88 <add_bank_note_credit+0xc0>)
 8000d4c:	f04f 33ff 	mov.w	r3, #4294967295	; 0xffffffff
 8000d50:	2219      	movs	r2, #25
 8000d52:	f002 f82f 	bl	8002db4 <HAL_UART_Transmit>
 8000d56:	8822      	ldrh	r2, [r4, #0]
 8000d58:	4912      	ldr	r1, [pc, #72]	; (8000da4 <add_bank_note_credit+0xdc>)
 8000d5a:	b292      	uxth	r2, r2
 8000d5c:	a801      	add	r0, sp, #4
 8000d5e:	f002 f8b1 	bl	8002ec4 <siprintf>
 8000d62:	a801      	add	r0, sp, #4
 8000d64:	f7ff f9f2 	bl	800014c <strlen>
 8000d68:	f04f 33ff 	mov.w	r3, #4294967295	; 0xffffffff
 8000d6c:	b282      	uxth	r2, r0
 8000d6e:	a901      	add	r1, sp, #4
 8000d70:	4805      	ldr	r0, [pc, #20]	; (8000d88 <add_bank_note_credit+0xc0>)
 8000d72:	f002 f81f 	bl	8002db4 <HAL_UART_Transmit>
 8000d76:	b015      	add	sp, #84	; 0x54
 8000d78:	bd30      	pop	{r4, r5, pc}
 8000d7a:	bf00      	nop
 8000d7c:	20000005 	.word	0x20000005
 8000d80:	08003873 	.word	0x08003873
 8000d84:	2000009e 	.word	0x2000009e
 8000d88:	200001d0 	.word	0x200001d0
 8000d8c:	200000a8 	.word	0x200000a8
 8000d90:	200000ae 	.word	0x200000ae
 8000d94:	20000008 	.word	0x20000008
 8000d98:	2000000c 	.word	0x2000000c
 8000d9c:	200000ac 	.word	0x200000ac
 8000da0:	08003888 	.word	0x08003888
 8000da4:	080038a2 	.word	0x080038a2

08000da8 <add_coin_credit>:
 8000da8:	b530      	push	{r4, r5, lr}
 8000daa:	4d24      	ldr	r5, [pc, #144]	; (8000e3c <add_coin_credit+0x94>)
 8000dac:	b08b      	sub	sp, #44	; 0x2c
 8000dae:	782a      	ldrb	r2, [r5, #0]
 8000db0:	4923      	ldr	r1, [pc, #140]	; (8000e40 <add_coin_credit+0x98>)
 8000db2:	4668      	mov	r0, sp
 8000db4:	f002 f886 	bl	8002ec4 <siprintf>
 8000db8:	4668      	mov	r0, sp
 8000dba:	f7ff f9c7 	bl	800014c <strlen>
 8000dbe:	4c21      	ldr	r4, [pc, #132]	; (8000e44 <add_coin_credit+0x9c>)
 8000dc0:	b282      	uxth	r2, r0
 8000dc2:	f04f 33ff 	mov.w	r3, #4294967295	; 0xffffffff
 8000dc6:	4669      	mov	r1, sp
 8000dc8:	481f      	ldr	r0, [pc, #124]	; (8000e48 <add_coin_credit+0xa0>)
 8000dca:	f001 fff3 	bl	8002db4 <HAL_UART_Transmit>
 8000dce:	782b      	ldrb	r3, [r5, #0]
 8000dd0:	8822      	ldrh	r2, [r4, #0]
 8000dd2:	4413      	add	r3, r2
 8000dd4:	2200      	movs	r2, #0
 8000dd6:	b29b      	uxth	r3, r3
 8000dd8:	8023      	strh	r3, [r4, #0]
 8000dda:	4b1c      	ldr	r3, [pc, #112]	; (8000e4c <add_coin_credit+0xa4>)
 8000ddc:	601a      	str	r2, [r3, #0]
 8000dde:	4a1c      	ldr	r2, [pc, #112]	; (8000e50 <add_coin_credit+0xa8>)
 8000de0:	7829      	ldrb	r1, [r5, #0]
 8000de2:	7813      	ldrb	r3, [r2, #0]
 8000de4:	440b      	add	r3, r1
 8000de6:	b2db      	uxtb	r3, r3
 8000de8:	7013      	strb	r3, [r2, #0]
 8000dea:	f240 32e6 	movw	r2, #998	; 0x3e6
 8000dee:	8823      	ldrh	r3, [r4, #0]
 8000df0:	b29b      	uxth	r3, r3
 8000df2:	4293      	cmp	r3, r2
 8000df4:	bf84      	itt	hi
 8000df6:	f240 33e7 	movwhi	r3, #999	; 0x3e7
 8000dfa:	8023      	strhhi	r3, [r4, #0]
 8000dfc:	8820      	ldrh	r0, [r4, #0]
 8000dfe:	b280      	uxth	r0, r0
 8000e00:	f7ff fad2 	bl	80003a8 <store_credit_eeprom>
 8000e04:	2200      	movs	r2, #0
 8000e06:	4b13      	ldr	r3, [pc, #76]	; (8000e54 <add_coin_credit+0xac>)
 8000e08:	701a      	strb	r2, [r3, #0]
 8000e0a:	f000 fa11 	bl	8001230 <max7219_Turn_On>
 8000e0e:	8820      	ldrh	r0, [r4, #0]
 8000e10:	b280      	uxth	r0, r0
 8000e12:	f7ff fe53 	bl	8000abc <segment_display_int>
 8000e16:	4a10      	ldr	r2, [pc, #64]	; (8000e58 <add_coin_credit+0xb0>)
 8000e18:	8823      	ldrh	r3, [r4, #0]
 8000e1a:	6812      	ldr	r2, [r2, #0]
 8000e1c:	b29b      	uxth	r3, r3
 8000e1e:	4293      	cmp	r3, r2
 8000e20:	db09      	blt.n	8000e36 <add_coin_credit+0x8e>
 8000e22:	2201      	movs	r2, #1
 8000e24:	4b0d      	ldr	r3, [pc, #52]	; (8000e5c <add_coin_credit+0xb4>)
 8000e26:	490e      	ldr	r1, [pc, #56]	; (8000e60 <add_coin_credit+0xb8>)
 8000e28:	701a      	strb	r2, [r3, #0]
 8000e2a:	4807      	ldr	r0, [pc, #28]	; (8000e48 <add_coin_credit+0xa0>)
 8000e2c:	f04f 33ff 	mov.w	r3, #4294967295	; 0xffffffff
 8000e30:	2219      	movs	r2, #25
 8000e32:	f001 ffbf 	bl	8002db4 <HAL_UART_Transmit>
 8000e36:	b00b      	add	sp, #44	; 0x2c
 8000e38:	bd30      	pop	{r4, r5, pc}
 8000e3a:	bf00      	nop
 8000e3c:	20000006 	.word	0x20000006
 8000e40:	08003873 	.word	0x08003873
 8000e44:	2000009e 	.word	0x2000009e
 8000e48:	200001d0 	.word	0x200001d0
 8000e4c:	200000a8 	.word	0x200000a8
 8000e50:	200000ad 	.word	0x200000ad
 8000e54:	20000008 	.word	0x20000008
 8000e58:	2000000c 	.word	0x2000000c
 8000e5c:	200000ac 	.word	0x200000ac
 8000e60:	08003888 	.word	0x08003888

08000e64 <read_credit_eeprom>:
 8000e64:	b538      	push	{r3, r4, r5, lr}
 8000e66:	4d07      	ldr	r5, [pc, #28]	; (8000e84 <read_credit_eeprom+0x20>)
 8000e68:	2106      	movs	r1, #6
 8000e6a:	4628      	mov	r0, r5
 8000e6c:	f001 fb9e 	bl	80025ac <HAL_RTCEx_BKUPRead>
 8000e70:	2107      	movs	r1, #7
 8000e72:	4604      	mov	r4, r0
 8000e74:	4628      	mov	r0, r5
 8000e76:	f001 fb99 	bl	80025ac <HAL_RTCEx_BKUPRead>
 8000e7a:	b2e4      	uxtb	r4, r4
 8000e7c:	ea44 2000 	orr.w	r0, r4, r0, lsl #8
 8000e80:	b280      	uxth	r0, r0
 8000e82:	bd38      	pop	{r3, r4, r5, pc}
 8000e84:	200000d8 	.word	0x200000d8

08000e88 <read_settings_from_eeprom>:
 8000e88:	e92d 43f0 	stmdb	sp!, {r4, r5, r6, r7, r8, r9, lr}
 8000e8c:	2101      	movs	r1, #1
 8000e8e:	b08b      	sub	sp, #44	; 0x2c
 8000e90:	486a      	ldr	r0, [pc, #424]	; (800103c <read_settings_from_eeprom+0x1b4>)
 8000e92:	f001 fb8b 	bl	80025ac <HAL_RTCEx_BKUPRead>
 8000e96:	4c6a      	ldr	r4, [pc, #424]	; (8001040 <read_settings_from_eeprom+0x1b8>)
 8000e98:	b2c0      	uxtb	r0, r0
 8000e9a:	2102      	movs	r1, #2
 8000e9c:	7020      	strb	r0, [r4, #0]
 8000e9e:	4867      	ldr	r0, [pc, #412]	; (800103c <read_settings_from_eeprom+0x1b4>)
 8000ea0:	f001 fb84 	bl	80025ac <HAL_RTCEx_BKUPRead>
 8000ea4:	4f67      	ldr	r7, [pc, #412]	; (8001044 <read_settings_from_eeprom+0x1bc>)
 8000ea6:	b2c0      	uxtb	r0, r0
 8000ea8:	2103      	movs	r1, #3
 8000eaa:	7038      	strb	r0, [r7, #0]
 8000eac:	4863      	ldr	r0, [pc, #396]	; (800103c <read_settings_from_eeprom+0x1b4>)
 8000eae:	f001 fb7d 	bl	80025ac <HAL_RTCEx_BKUPRead>
 8000eb2:	4e65      	ldr	r6, [pc, #404]	; (8001048 <read_settings_from_eeprom+0x1c0>)
 8000eb4:	b2c0      	uxtb	r0, r0
 8000eb6:	2104      	movs	r1, #4
 8000eb8:	7030      	strb	r0, [r6, #0]
 8000eba:	4860      	ldr	r0, [pc, #384]	; (800103c <read_settings_from_eeprom+0x1b4>)
 8000ebc:	f001 fb76 	bl	80025ac <HAL_RTCEx_BKUPRead>
 8000ec0:	4d62      	ldr	r5, [pc, #392]	; (800104c <read_settings_from_eeprom+0x1c4>)
 8000ec2:	b2c0      	uxtb	r0, r0
 8000ec4:	2105      	movs	r1, #5
 8000ec6:	7028      	strb	r0, [r5, #0]
 8000ec8:	485c      	ldr	r0, [pc, #368]	; (800103c <read_settings_from_eeprom+0x1b4>)
 8000eca:	f001 fb6f 	bl	80025ac <HAL_RTCEx_BKUPRead>
 8000ece:	4b60      	ldr	r3, [pc, #384]	; (8001050 <read_settings_from_eeprom+0x1c8>)
 8000ed0:	b2c0      	uxtb	r0, r0
 8000ed2:	7018      	strb	r0, [r3, #0]
 8000ed4:	f7ff ffc6 	bl	8000e64 <read_credit_eeprom>
 8000ed8:	4b5e      	ldr	r3, [pc, #376]	; (8001054 <read_settings_from_eeprom+0x1cc>)
 8000eda:	46a0      	mov	r8, r4
 8000edc:	8018      	strh	r0, [r3, #0]
 8000ede:	881b      	ldrh	r3, [r3, #0]
 8000ee0:	b29b      	uxth	r3, r3
 8000ee2:	2b01      	cmp	r3, #1
 8000ee4:	f240 80a6 	bls.w	8001034 <read_settings_from_eeprom+0x1ac>
 8000ee8:	2201      	movs	r2, #1
 8000eea:	4b5b      	ldr	r3, [pc, #364]	; (8001058 <read_settings_from_eeprom+0x1d0>)
 8000eec:	701a      	strb	r2, [r3, #0]
 8000eee:	2300      	movs	r3, #0
 8000ef0:	4a5a      	ldr	r2, [pc, #360]	; (800105c <read_settings_from_eeprom+0x1d4>)
 8000ef2:	7013      	strb	r3, [r2, #0]
 8000ef4:	4a5a      	ldr	r2, [pc, #360]	; (8001060 <read_settings_from_eeprom+0x1d8>)
 8000ef6:	7013      	strb	r3, [r2, #0]
 8000ef8:	4a5a      	ldr	r2, [pc, #360]	; (8001064 <read_settings_from_eeprom+0x1dc>)
 8000efa:	7013      	strb	r3, [r2, #0]
 8000efc:	f898 2000 	ldrb.w	r2, [r8]
 8000f00:	4959      	ldr	r1, [pc, #356]	; (8001068 <read_settings_from_eeprom+0x1e0>)
 8000f02:	a801      	add	r0, sp, #4
 8000f04:	f001 ffde 	bl	8002ec4 <siprintf>
 8000f08:	a801      	add	r0, sp, #4
 8000f0a:	f7ff f91f 	bl	800014c <strlen>
 8000f0e:	f04f 33ff 	mov.w	r3, #4294967295	; 0xffffffff
 8000f12:	b282      	uxth	r2, r0
 8000f14:	a901      	add	r1, sp, #4
 8000f16:	4855      	ldr	r0, [pc, #340]	; (800106c <read_settings_from_eeprom+0x1e4>)
 8000f18:	f001 ff4c 	bl	8002db4 <HAL_UART_Transmit>
 8000f1c:	783a      	ldrb	r2, [r7, #0]
 8000f1e:	4954      	ldr	r1, [pc, #336]	; (8001070 <read_settings_from_eeprom+0x1e8>)
 8000f20:	a801      	add	r0, sp, #4
 8000f22:	f001 ffcf 	bl	8002ec4 <siprintf>
 8000f26:	a801      	add	r0, sp, #4
 8000f28:	f7ff f910 	bl	800014c <strlen>
 8000f2c:	f04f 33ff 	mov.w	r3, #4294967295	; 0xffffffff
 8000f30:	b282      	uxth	r2, r0
 8000f32:	a901      	add	r1, sp, #4
 8000f34:	484d      	ldr	r0, [pc, #308]	; (800106c <read_settings_from_eeprom+0x1e4>)
 8000f36:	f001 ff3d 	bl	8002db4 <HAL_UART_Transmit>
 8000f3a:	7832      	ldrb	r2, [r6, #0]
 8000f3c:	494d      	ldr	r1, [pc, #308]	; (8001074 <read_settings_from_eeprom+0x1ec>)
 8000f3e:	a801      	add	r0, sp, #4
 8000f40:	f001 ffc0 	bl	8002ec4 <siprintf>
 8000f44:	a801      	add	r0, sp, #4
 8000f46:	f7ff f901 	bl	800014c <strlen>
 8000f4a:	f04f 33ff 	mov.w	r3, #4294967295	; 0xffffffff
 8000f4e:	b282      	uxth	r2, r0
 8000f50:	a901      	add	r1, sp, #4
 8000f52:	4846      	ldr	r0, [pc, #280]	; (800106c <read_settings_from_eeprom+0x1e4>)
 8000f54:	f001 ff2e 	bl	8002db4 <HAL_UART_Transmit>
 8000f58:	782a      	ldrb	r2, [r5, #0]
 8000f5a:	4947      	ldr	r1, [pc, #284]	; (8001078 <read_settings_from_eeprom+0x1f0>)
 8000f5c:	a801      	add	r0, sp, #4
 8000f5e:	f001 ffb1 	bl	8002ec4 <siprintf>
 8000f62:	a801      	add	r0, sp, #4
 8000f64:	f7ff f8f2 	bl	800014c <strlen>
 8000f68:	4c39      	ldr	r4, [pc, #228]	; (8001050 <read_settings_from_eeprom+0x1c8>)
 8000f6a:	f04f 33ff 	mov.w	r3, #4294967295	; 0xffffffff
 8000f6e:	b282      	uxth	r2, r0
 8000f70:	a901      	add	r1, sp, #4
 8000f72:	483e      	ldr	r0, [pc, #248]	; (800106c <read_settings_from_eeprom+0x1e4>)
 8000f74:	f001 ff1e 	bl	8002db4 <HAL_UART_Transmit>
 8000f78:	7822      	ldrb	r2, [r4, #0]
 8000f7a:	4940      	ldr	r1, [pc, #256]	; (800107c <read_settings_from_eeprom+0x1f4>)
 8000f7c:	a801      	add	r0, sp, #4
 8000f7e:	f001 ffa1 	bl	8002ec4 <siprintf>
 8000f82:	a801      	add	r0, sp, #4
 8000f84:	f7ff f8e2 	bl	800014c <strlen>
 8000f88:	f04f 33ff 	mov.w	r3, #4294967295	; 0xffffffff
 8000f8c:	b282      	uxth	r2, r0
 8000f8e:	a901      	add	r1, sp, #4
 8000f90:	4836      	ldr	r0, [pc, #216]	; (800106c <read_settings_from_eeprom+0x1e4>)
 8000f92:	f001 ff0f 	bl	8002db4 <HAL_UART_Transmit>
 8000f96:	4b2f      	ldr	r3, [pc, #188]	; (8001054 <read_settings_from_eeprom+0x1cc>)
 8000f98:	4939      	ldr	r1, [pc, #228]	; (8001080 <read_settings_from_eeprom+0x1f8>)
 8000f9a:	881a      	ldrh	r2, [r3, #0]
 8000f9c:	a801      	add	r0, sp, #4
 8000f9e:	b292      	uxth	r2, r2
 8000fa0:	f001 ff90 	bl	8002ec4 <siprintf>
 8000fa4:	a801      	add	r0, sp, #4
 8000fa6:	f7ff f8d1 	bl	800014c <strlen>
 8000faa:	f04f 33ff 	mov.w	r3, #4294967295	; 0xffffffff
 8000fae:	b282      	uxth	r2, r0
 8000fb0:	a901      	add	r1, sp, #4
 8000fb2:	482e      	ldr	r0, [pc, #184]	; (800106c <read_settings_from_eeprom+0x1e4>)
 8000fb4:	f001 fefe 	bl	8002db4 <HAL_UART_Transmit>
 8000fb8:	f898 3000 	ldrb.w	r3, [r8]
 8000fbc:	46a1      	mov	r9, r4
 8000fbe:	b13b      	cbz	r3, 8000fd0 <read_settings_from_eeprom+0x148>
 8000fc0:	783b      	ldrb	r3, [r7, #0]
 8000fc2:	b12b      	cbz	r3, 8000fd0 <read_settings_from_eeprom+0x148>
 8000fc4:	7833      	ldrb	r3, [r6, #0]
 8000fc6:	b11b      	cbz	r3, 8000fd0 <read_settings_from_eeprom+0x148>
 8000fc8:	782b      	ldrb	r3, [r5, #0]
 8000fca:	b10b      	cbz	r3, 8000fd0 <read_settings_from_eeprom+0x148>
 8000fcc:	7823      	ldrb	r3, [r4, #0]
 8000fce:	bb53      	cbnz	r3, 8001026 <read_settings_from_eeprom+0x19e>
 8000fd0:	4c2c      	ldr	r4, [pc, #176]	; (8001084 <read_settings_from_eeprom+0x1fc>)
 8000fd2:	2101      	movs	r1, #1
 8000fd4:	7822      	ldrb	r2, [r4, #0]
 8000fd6:	4819      	ldr	r0, [pc, #100]	; (800103c <read_settings_from_eeprom+0x1b4>)
 8000fd8:	f001 fae0 	bl	800259c <HAL_RTCEx_BKUPWrite>
 8000fdc:	2102      	movs	r1, #2
 8000fde:	7822      	ldrb	r2, [r4, #0]
 8000fe0:	4816      	ldr	r0, [pc, #88]	; (800103c <read_settings_from_eeprom+0x1b4>)
 8000fe2:	f001 fadb 	bl	800259c <HAL_RTCEx_BKUPWrite>
 8000fe6:	2103      	movs	r1, #3
 8000fe8:	7822      	ldrb	r2, [r4, #0]
 8000fea:	4814      	ldr	r0, [pc, #80]	; (800103c <read_settings_from_eeprom+0x1b4>)
 8000fec:	f001 fad6 	bl	800259c <HAL_RTCEx_BKUPWrite>
 8000ff0:	2104      	movs	r1, #4
 8000ff2:	7822      	ldrb	r2, [r4, #0]
 8000ff4:	4811      	ldr	r0, [pc, #68]	; (800103c <read_settings_from_eeprom+0x1b4>)
 8000ff6:	f001 fad1 	bl	800259c <HAL_RTCEx_BKUPWrite>
 8000ffa:	2105      	movs	r1, #5
 8000ffc:	7822      	ldrb	r2, [r4, #0]
 8000ffe:	480f      	ldr	r0, [pc, #60]	; (800103c <read_settings_from_eeprom+0x1b4>)
 8001000:	f001 facc 	bl	800259c <HAL_RTCEx_BKUPWrite>
 8001004:	7823      	ldrb	r3, [r4, #0]
 8001006:	b2db      	uxtb	r3, r3
 8001008:	f888 3000 	strb.w	r3, [r8]
 800100c:	7823      	ldrb	r3, [r4, #0]
 800100e:	b2db      	uxtb	r3, r3
 8001010:	703b      	strb	r3, [r7, #0]
 8001012:	7823      	ldrb	r3, [r4, #0]
 8001014:	b2db      	uxtb	r3, r3
 8001016:	7033      	strb	r3, [r6, #0]
 8001018:	7823      	ldrb	r3, [r4, #0]
 800101a:	b2db      	uxtb	r3, r3
 800101c:	702b      	strb	r3, [r5, #0]
 800101e:	7823      	ldrb	r3, [r4, #0]
 8001020:	b2db      	uxtb	r3, r3
 8001022:	f889 3000 	strb.w	r3, [r9]
 8001026:	f44f 7096 	mov.w	r0, #300	; 0x12c
 800102a:	f000 fbfd 	bl	8001828 <HAL_Delay>
 800102e:	b00b      	add	sp, #44	; 0x2c
 8001030:	e8bd 83f0 	ldmia.w	sp!, {r4, r5, r6, r7, r8, r9, pc}
 8001034:	f7ff fb1c 	bl	8000670 <reset_all_state>
 8001038:	e760      	b.n	8000efc <read_settings_from_eeprom+0x74>
 800103a:	bf00      	nop
 800103c:	200000d8 	.word	0x200000d8
 8001040:	20000000 	.word	0x20000000
 8001044:	20000001 	.word	0x20000001
 8001048:	20000002 	.word	0x20000002
 800104c:	20000003 	.word	0x20000003
 8001050:	20000004 	.word	0x20000004
 8001054:	2000009e 	.word	0x2000009e
 8001058:	200000ac 	.word	0x200000ac
 800105c:	20000008 	.word	0x20000008
 8001060:	2000009c 	.word	0x2000009c
 8001064:	200000a0 	.word	0x200000a0
 8001068:	080038b9 	.word	0x080038b9
 800106c:	200001d0 	.word	0x200001d0
 8001070:	080038d9 	.word	0x080038d9
 8001074:	080038f9 	.word	0x080038f9
 8001078:	08003919 	.word	0x08003919
 800107c:	08003939 	.word	0x08003939
 8001080:	08003959 	.word	0x08003959
 8001084:	20000007 	.word	0x20000007

08001088 <main>:
 8001088:	b570      	push	{r4, r5, r6, lr}
 800108a:	f000 fba9 	bl	80017e0 <HAL_Init>
 800108e:	f7ff f8f1 	bl	8000274 <SystemClock_Config>
 8001092:	f7ff f863 	bl	800015c <MX_GPIO_Init>
 8001096:	f000 f963 	bl	8001360 <MX_RTC_Init>
 800109a:	f000 f9b3 	bl	8001404 <MX_SPI2_Init>
 800109e:	f000 fa5f 	bl	8001560 <MX_TIM2_Init>
 80010a2:	f000 faaf 	bl	8001604 <MX_USART1_UART_Init>
 80010a6:	f000 fac9 	bl	800163c <MX_USART3_UART_Init>
 80010aa:	f7ff fab3 	bl	8000614 <reset_all_pins>
 80010ae:	f7ff feeb 	bl	8000e88 <read_settings_from_eeprom>
 80010b2:	f7ff faa1 	bl	80005f8 <init_display>
 80010b6:	f7ff faad 	bl	8000614 <reset_all_pins>
 80010ba:	481a      	ldr	r0, [pc, #104]	; (8001124 <main+0x9c>)
 80010bc:	f001 fbe8 	bl	8002890 <HAL_TIM_Base_Start_IT>
 80010c0:	4d19      	ldr	r5, [pc, #100]	; (8001128 <main+0xa0>)
 80010c2:	4c1a      	ldr	r4, [pc, #104]	; (800112c <main+0xa4>)
 80010c4:	4e1a      	ldr	r6, [pc, #104]	; (8001130 <main+0xa8>)
 80010c6:	f7ff fbfb 	bl	80008c0 <read_button>
 80010ca:	2806      	cmp	r0, #6
 80010cc:	d107      	bne.n	80010de <main+0x56>
 80010ce:	f7ff facf 	bl	8000670 <reset_all_state>
 80010d2:	4b18      	ldr	r3, [pc, #96]	; (8001134 <main+0xac>)
 80010d4:	8818      	ldrh	r0, [r3, #0]
 80010d6:	b280      	uxth	r0, r0
 80010d8:	f7ff f966 	bl	80003a8 <store_credit_eeprom>
 80010dc:	e7f3      	b.n	80010c6 <main+0x3e>
 80010de:	2807      	cmp	r0, #7
 80010e0:	d105      	bne.n	80010ee <main+0x66>
 80010e2:	2201      	movs	r2, #1
 80010e4:	4b14      	ldr	r3, [pc, #80]	; (8001138 <main+0xb0>)
 80010e6:	701a      	strb	r2, [r3, #0]
 80010e8:	f7ff fcbc 	bl	8000a64 <setting_menu_loop>
 80010ec:	e7eb      	b.n	80010c6 <main+0x3e>
 80010ee:	b120      	cbz	r0, 80010fa <main+0x72>
 80010f0:	7823      	ldrb	r3, [r4, #0]
 80010f2:	4283      	cmp	r3, r0
 80010f4:	d10d      	bne.n	8001112 <main+0x8a>
 80010f6:	2300      	movs	r3, #0
 80010f8:	7023      	strb	r3, [r4, #0]
 80010fa:	782b      	ldrb	r3, [r5, #0]
 80010fc:	f003 02ff 	and.w	r2, r3, #255	; 0xff
 8001100:	b163      	cbz	r3, 800111c <main+0x94>
 8001102:	2300      	movs	r3, #0
 8001104:	7033      	strb	r3, [r6, #0]
 8001106:	f7ff fbc5 	bl	8000894 <do_operation>
 800110a:	2078      	movs	r0, #120	; 0x78
 800110c:	f000 fb8c 	bl	8001828 <HAL_Delay>
 8001110:	e7d9      	b.n	80010c6 <main+0x3e>
 8001112:	7823      	ldrb	r3, [r4, #0]
 8001114:	2b00      	cmp	r3, #0
 8001116:	d1f0      	bne.n	80010fa <main+0x72>
 8001118:	7020      	strb	r0, [r4, #0]
 800111a:	e7ee      	b.n	80010fa <main+0x72>
 800111c:	7022      	strb	r2, [r4, #0]
 800111e:	f7ff fa79 	bl	8000614 <reset_all_pins>
 8001122:	e7f2      	b.n	800110a <main+0x82>
 8001124:	20000144 	.word	0x20000144
 8001128:	200000ac 	.word	0x200000ac
 800112c:	200000af 	.word	0x200000af
 8001130:	20000008 	.word	0x20000008
 8001134:	2000009e 	.word	0x2000009e
 8001138:	200000b0 	.word	0x200000b0

0800113c <HAL_GPIO_EXTI_Callback>:
 800113c:	b500      	push	{lr}
 800113e:	2810      	cmp	r0, #16
 8001140:	b095      	sub	sp, #84	; 0x54
 8001142:	d112      	bne.n	800116a <HAL_GPIO_EXTI_Callback+0x2e>
 8001144:	4912      	ldr	r1, [pc, #72]	; (8001190 <HAL_GPIO_EXTI_Callback+0x54>)
 8001146:	4668      	mov	r0, sp
 8001148:	f001 fedc 	bl	8002f04 <strcpy>
 800114c:	4668      	mov	r0, sp
 800114e:	f7fe fffd 	bl	800014c <strlen>
 8001152:	f04f 33ff 	mov.w	r3, #4294967295	; 0xffffffff
 8001156:	b282      	uxth	r2, r0
 8001158:	4669      	mov	r1, sp
 800115a:	480e      	ldr	r0, [pc, #56]	; (8001194 <HAL_GPIO_EXTI_Callback+0x58>)
 800115c:	f001 fe2a 	bl	8002db4 <HAL_UART_Transmit>
 8001160:	f7ff fe22 	bl	8000da8 <add_coin_credit>
 8001164:	b015      	add	sp, #84	; 0x54
 8001166:	f85d fb04 	ldr.w	pc, [sp], #4
 800116a:	2820      	cmp	r0, #32
 800116c:	d1fa      	bne.n	8001164 <HAL_GPIO_EXTI_Callback+0x28>
 800116e:	490a      	ldr	r1, [pc, #40]	; (8001198 <HAL_GPIO_EXTI_Callback+0x5c>)
 8001170:	4668      	mov	r0, sp
 8001172:	f001 fec7 	bl	8002f04 <strcpy>
 8001176:	4668      	mov	r0, sp
 8001178:	f7fe ffe8 	bl	800014c <strlen>
 800117c:	f04f 33ff 	mov.w	r3, #4294967295	; 0xffffffff
 8001180:	b282      	uxth	r2, r0
 8001182:	4669      	mov	r1, sp
 8001184:	4803      	ldr	r0, [pc, #12]	; (8001194 <HAL_GPIO_EXTI_Callback+0x58>)
 8001186:	f001 fe15 	bl	8002db4 <HAL_UART_Transmit>
 800118a:	f7ff fd9d 	bl	8000cc8 <add_bank_note_credit>
 800118e:	e7e9      	b.n	8001164 <HAL_GPIO_EXTI_Callback+0x28>
 8001190:	08003975 	.word	0x08003975
 8001194:	200001d0 	.word	0x200001d0
 8001198:	080039aa 	.word	0x080039aa

0800119c <Error_Handler>:
 800119c:	b672      	cpsid	i
 800119e:	e7fe      	b.n	800119e <Error_Handler+0x2>

080011a0 <max7219_SendData>:
 80011a0:	b537      	push	{r0, r1, r2, r4, r5, lr}
 80011a2:	4c12      	ldr	r4, [pc, #72]	; (80011ec <max7219_SendData+0x4c>)
 80011a4:	4d12      	ldr	r5, [pc, #72]	; (80011f0 <max7219_SendData+0x50>)
 80011a6:	f88d 0007 	strb.w	r0, [sp, #7]
 80011aa:	f88d 1006 	strb.w	r1, [sp, #6]
 80011ae:	4620      	mov	r0, r4
 80011b0:	2200      	movs	r2, #0
 80011b2:	f44f 4180 	mov.w	r1, #16384	; 0x4000
 80011b6:	f000 fc93 	bl	8001ae0 <HAL_GPIO_WritePin>
 80011ba:	f10d 0107 	add.w	r1, sp, #7
 80011be:	f04f 33ff 	mov.w	r3, #4294967295	; 0xffffffff
 80011c2:	2201      	movs	r2, #1
 80011c4:	4628      	mov	r0, r5
 80011c6:	f001 fab5 	bl	8002734 <HAL_SPI_Transmit>
 80011ca:	f04f 33ff 	mov.w	r3, #4294967295	; 0xffffffff
 80011ce:	f10d 0106 	add.w	r1, sp, #6
 80011d2:	2201      	movs	r2, #1
 80011d4:	4628      	mov	r0, r5
 80011d6:	f001 faad 	bl	8002734 <HAL_SPI_Transmit>
 80011da:	2201      	movs	r2, #1
 80011dc:	f44f 4180 	mov.w	r1, #16384	; 0x4000
 80011e0:	4620      	mov	r0, r4
 80011e2:	f000 fc7d 	bl	8001ae0 <HAL_GPIO_WritePin>
 80011e6:	b003      	add	sp, #12
 80011e8:	bd30      	pop	{r4, r5, pc}
 80011ea:	bf00      	nop
 80011ec:	40010c00 	.word	0x40010c00
 80011f0:	200000ec 	.word	0x200000ec

080011f4 <max7219_SetIntensivity>:
 80011f4:	280f      	cmp	r0, #15
 80011f6:	4601      	mov	r1, r0
 80011f8:	d802      	bhi.n	8001200 <max7219_SetIntensivity+0xc>
 80011fa:	200a      	movs	r0, #10
 80011fc:	f7ff bfd0 	b.w	80011a0 <max7219_SendData>
 8001200:	4770      	bx	lr

08001202 <max7219_DisableDisplayTest>:
 8001202:	2100      	movs	r1, #0
 8001204:	200f      	movs	r0, #15
 8001206:	f7ff bfcb 	b.w	80011a0 <max7219_SendData>
	...

0800120c <max7219_Clean>:
 800120c:	b538      	push	{r3, r4, r5, lr}
 800120e:	4b07      	ldr	r3, [pc, #28]	; (800122c <max7219_Clean+0x20>)
 8001210:	2401      	movs	r4, #1
 8001212:	781b      	ldrb	r3, [r3, #0]
 8001214:	2bff      	cmp	r3, #255	; 0xff
 8001216:	bf14      	ite	ne
 8001218:	2500      	movne	r5, #0
 800121a:	250f      	moveq	r5, #15
 800121c:	b2e0      	uxtb	r0, r4
 800121e:	4629      	mov	r1, r5
 8001220:	3401      	adds	r4, #1
 8001222:	f7ff ffbd 	bl	80011a0 <max7219_SendData>
 8001226:	2c09      	cmp	r4, #9
 8001228:	d1f8      	bne.n	800121c <max7219_Clean+0x10>
 800122a:	bd38      	pop	{r3, r4, r5, pc}
 800122c:	200000c8 	.word	0x200000c8

08001230 <max7219_Turn_On>:
 8001230:	b508      	push	{r3, lr}
 8001232:	f7ff ffe6 	bl	8001202 <max7219_DisableDisplayTest>
 8001236:	e8bd 4008 	ldmia.w	sp!, {r3, lr}
 800123a:	2101      	movs	r1, #1
 800123c:	200c      	movs	r0, #12
 800123e:	f7ff bfaf 	b.w	80011a0 <max7219_SendData>

08001242 <max7219_Turn_Off>:
 8001242:	b508      	push	{r3, lr}
 8001244:	f7ff ffdd 	bl	8001202 <max7219_DisableDisplayTest>
 8001248:	e8bd 4008 	ldmia.w	sp!, {r3, lr}
 800124c:	2100      	movs	r1, #0
 800124e:	200c      	movs	r0, #12
 8001250:	f7ff bfa6 	b.w	80011a0 <max7219_SendData>

08001254 <max7219_Init>:
 8001254:	b510      	push	{r4, lr}
 8001256:	4604      	mov	r4, r0
 8001258:	f7ff fff3 	bl	8001242 <max7219_Turn_Off>
 800125c:	f7ff ffd1 	bl	8001202 <max7219_DisableDisplayTest>
 8001260:	f7ff ffe6 	bl	8001230 <max7219_Turn_On>
 8001264:	2107      	movs	r1, #7
 8001266:	200b      	movs	r0, #11
 8001268:	f7ff ff9a 	bl	80011a0 <max7219_SendData>
 800126c:	4620      	mov	r0, r4
 800126e:	f7ff ffc1 	bl	80011f4 <max7219_SetIntensivity>
 8001272:	e8bd 4010 	ldmia.w	sp!, {r4, lr}
 8001276:	f7ff bfc9 	b.w	800120c <max7219_Clean>
	...

0800127c <max7219_Decode_On>:
 800127c:	21ff      	movs	r1, #255	; 0xff
 800127e:	4b02      	ldr	r3, [pc, #8]	; (8001288 <max7219_Decode_On+0xc>)
 8001280:	2009      	movs	r0, #9
 8001282:	7019      	strb	r1, [r3, #0]
 8001284:	f7ff bf8c 	b.w	80011a0 <max7219_SendData>
 8001288:	200000c8 	.word	0x200000c8

0800128c <max7219_PrintDigit>:
 800128c:	b570      	push	{r4, r5, r6, lr}
 800128e:	4604      	mov	r4, r0
 8001290:	460d      	mov	r5, r1
 8001292:	4616      	mov	r6, r2
 8001294:	f7ff ffb5 	bl	8001202 <max7219_DisableDisplayTest>
 8001298:	2c08      	cmp	r4, #8
 800129a:	d81c      	bhi.n	80012d6 <max7219_PrintDigit+0x4a>
 800129c:	4b0e      	ldr	r3, [pc, #56]	; (80012d8 <max7219_PrintDigit+0x4c>)
 800129e:	781b      	ldrb	r3, [r3, #0]
 80012a0:	b176      	cbz	r6, 80012c0 <max7219_PrintDigit+0x34>
 80012a2:	b943      	cbnz	r3, 80012b6 <max7219_PrintDigit+0x2a>
 80012a4:	4b0d      	ldr	r3, [pc, #52]	; (80012dc <max7219_PrintDigit+0x50>)
 80012a6:	5d59      	ldrb	r1, [r3, r5]
 80012a8:	f041 0180 	orr.w	r1, r1, #128	; 0x80
 80012ac:	4620      	mov	r0, r4
 80012ae:	e8bd 4070 	ldmia.w	sp!, {r4, r5, r6, lr}
 80012b2:	f7ff bf75 	b.w	80011a0 <max7219_SendData>
 80012b6:	2bff      	cmp	r3, #255	; 0xff
 80012b8:	d10d      	bne.n	80012d6 <max7219_PrintDigit+0x4a>
 80012ba:	f045 0180 	orr.w	r1, r5, #128	; 0x80
 80012be:	e7f5      	b.n	80012ac <max7219_PrintDigit+0x20>
 80012c0:	b923      	cbnz	r3, 80012cc <max7219_PrintDigit+0x40>
 80012c2:	4b06      	ldr	r3, [pc, #24]	; (80012dc <max7219_PrintDigit+0x50>)
 80012c4:	5d59      	ldrb	r1, [r3, r5]
 80012c6:	f001 017f 	and.w	r1, r1, #127	; 0x7f
 80012ca:	e7ef      	b.n	80012ac <max7219_PrintDigit+0x20>
 80012cc:	2bff      	cmp	r3, #255	; 0xff
 80012ce:	d102      	bne.n	80012d6 <max7219_PrintDigit+0x4a>
 80012d0:	f005 017f 	and.w	r1, r5, #127	; 0x7f
 80012d4:	e7ea      	b.n	80012ac <max7219_PrintDigit+0x20>
 80012d6:	bd70      	pop	{r4, r5, r6, pc}
 80012d8:	200000c8 	.word	0x200000c8
 80012dc:	080039df 	.word	0x080039df

080012e0 <max7219_PrintItos>:
 80012e0:	b5f8      	push	{r3, r4, r5, r6, r7, lr}
 80012e2:	460e      	mov	r6, r1
 80012e4:	4604      	mov	r4, r0
 80012e6:	f7ff ff8c 	bl	8001202 <max7219_DisableDisplayTest>
 80012ea:	21ff      	movs	r1, #255	; 0xff
 80012ec:	2009      	movs	r0, #9
 80012ee:	f7ff ff57 	bl	80011a0 <max7219_SendData>
 80012f2:	2e00      	cmp	r6, #0
 80012f4:	da07      	bge.n	8001306 <max7219_PrintItos+0x26>
 80012f6:	b12c      	cbz	r4, 8001304 <max7219_PrintItos+0x24>
 80012f8:	4620      	mov	r0, r4
 80012fa:	210a      	movs	r1, #10
 80012fc:	f7ff ff50 	bl	80011a0 <max7219_SendData>
 8001300:	3c01      	subs	r4, #1
 8001302:	b2e4      	uxtb	r4, r4
 8001304:	4276      	negs	r6, r6
 8001306:	2501      	movs	r5, #1
 8001308:	230a      	movs	r3, #10
 800130a:	fbb6 f1f5 	udiv	r1, r6, r5
 800130e:	2909      	cmp	r1, #9
 8001310:	dc11      	bgt.n	8001336 <max7219_PrintItos+0x56>
 8001312:	b12c      	cbz	r4, 8001320 <max7219_PrintItos+0x40>
 8001314:	4620      	mov	r0, r4
 8001316:	b2c9      	uxtb	r1, r1
 8001318:	f7ff ff42 	bl	80011a0 <max7219_SendData>
 800131c:	3c01      	subs	r4, #1
 800131e:	b2e4      	uxtb	r4, r4
 8001320:	270a      	movs	r7, #10
 8001322:	fbb5 f5f7 	udiv	r5, r5, r7
 8001326:	b945      	cbnz	r5, 800133a <max7219_PrintItos+0x5a>
 8001328:	4b0c      	ldr	r3, [pc, #48]	; (800135c <max7219_PrintItos+0x7c>)
 800132a:	2009      	movs	r0, #9
 800132c:	7819      	ldrb	r1, [r3, #0]
 800132e:	f7ff ff37 	bl	80011a0 <max7219_SendData>
 8001332:	4620      	mov	r0, r4
 8001334:	bdf8      	pop	{r3, r4, r5, r6, r7, pc}
 8001336:	435d      	muls	r5, r3
 8001338:	e7e7      	b.n	800130a <max7219_PrintItos+0x2a>
 800133a:	2c00      	cmp	r4, #0
 800133c:	d0f1      	beq.n	8001322 <max7219_PrintItos+0x42>
 800133e:	fb07 f305 	mul.w	r3, r7, r5
 8001342:	fbb6 f1f3 	udiv	r1, r6, r3
 8001346:	fb03 6111 	mls	r1, r3, r1, r6
 800134a:	fbb1 f1f5 	udiv	r1, r1, r5
 800134e:	4620      	mov	r0, r4
 8001350:	b2c9      	uxtb	r1, r1
 8001352:	3c01      	subs	r4, #1
 8001354:	f7ff ff24 	bl	80011a0 <max7219_SendData>
 8001358:	b2e4      	uxtb	r4, r4
 800135a:	e7e2      	b.n	8001322 <max7219_PrintItos+0x42>
 800135c:	200000c8 	.word	0x200000c8

08001360 <MX_RTC_Init>:
 8001360:	f04f 33ff 	mov.w	r3, #4294967295	; 0xffffffff
 8001364:	b513      	push	{r0, r1, r4, lr}
 8001366:	4a15      	ldr	r2, [pc, #84]	; (80013bc <MX_RTC_Init+0x5c>)
 8001368:	4815      	ldr	r0, [pc, #84]	; (80013c0 <MX_RTC_Init+0x60>)
 800136a:	2400      	movs	r4, #0
 800136c:	e9c0 2300 	strd	r2, r3, [r0]
 8001370:	f44f 7380 	mov.w	r3, #256	; 0x100
 8001374:	f8ad 4000 	strh.w	r4, [sp]
 8001378:	f88d 4002 	strb.w	r4, [sp, #2]
 800137c:	9401      	str	r4, [sp, #4]
 800137e:	6083      	str	r3, [r0, #8]
 8001380:	f001 f8be 	bl	8002500 <HAL_RTC_Init>
 8001384:	b108      	cbz	r0, 800138a <MX_RTC_Init+0x2a>
 8001386:	f7ff ff09 	bl	800119c <Error_Handler>
 800138a:	2201      	movs	r2, #1
 800138c:	4669      	mov	r1, sp
 800138e:	480c      	ldr	r0, [pc, #48]	; (80013c0 <MX_RTC_Init+0x60>)
 8001390:	f8ad 4000 	strh.w	r4, [sp]
 8001394:	f88d 4002 	strb.w	r4, [sp, #2]
 8001398:	f000 ffea 	bl	8002370 <HAL_RTC_SetTime>
 800139c:	b108      	cbz	r0, 80013a2 <MX_RTC_Init+0x42>
 800139e:	f7ff fefd 	bl	800119c <Error_Handler>
 80013a2:	4b08      	ldr	r3, [pc, #32]	; (80013c4 <MX_RTC_Init+0x64>)
 80013a4:	2201      	movs	r2, #1
 80013a6:	4806      	ldr	r0, [pc, #24]	; (80013c0 <MX_RTC_Init+0x60>)
 80013a8:	a901      	add	r1, sp, #4
 80013aa:	9301      	str	r3, [sp, #4]
 80013ac:	f001 f832 	bl	8002414 <HAL_RTC_SetDate>
 80013b0:	b108      	cbz	r0, 80013b6 <MX_RTC_Init+0x56>
 80013b2:	f7ff fef3 	bl	800119c <Error_Handler>
 80013b6:	b002      	add	sp, #8
 80013b8:	bd10      	pop	{r4, pc}
 80013ba:	bf00      	nop
 80013bc:	40002800 	.word	0x40002800
 80013c0:	200000d8 	.word	0x200000d8
 80013c4:	00010101 	.word	0x00010101

080013c8 <HAL_RTC_MspInit>:
 80013c8:	b507      	push	{r0, r1, r2, lr}
 80013ca:	4b0b      	ldr	r3, [pc, #44]	; (80013f8 <HAL_RTC_MspInit+0x30>)
 80013cc:	6802      	ldr	r2, [r0, #0]
 80013ce:	429a      	cmp	r2, r3
 80013d0:	d10e      	bne.n	80013f0 <HAL_RTC_MspInit+0x28>
 80013d2:	f000 fb9f 	bl	8001b14 <HAL_PWR_EnableBkUpAccess>
 80013d6:	4b09      	ldr	r3, [pc, #36]	; (80013fc <HAL_RTC_MspInit+0x34>)
 80013d8:	69da      	ldr	r2, [r3, #28]
 80013da:	f042 6200 	orr.w	r2, r2, #134217728	; 0x8000000
 80013de:	61da      	str	r2, [r3, #28]
 80013e0:	2201      	movs	r2, #1
 80013e2:	69db      	ldr	r3, [r3, #28]
 80013e4:	f003 6300 	and.w	r3, r3, #134217728	; 0x8000000
 80013e8:	9301      	str	r3, [sp, #4]
 80013ea:	9b01      	ldr	r3, [sp, #4]
 80013ec:	4b04      	ldr	r3, [pc, #16]	; (8001400 <HAL_RTC_MspInit+0x38>)
 80013ee:	601a      	str	r2, [r3, #0]
 80013f0:	b003      	add	sp, #12
 80013f2:	f85d fb04 	ldr.w	pc, [sp], #4
 80013f6:	bf00      	nop
 80013f8:	40002800 	.word	0x40002800
 80013fc:	40021000 	.word	0x40021000
 8001400:	4242043c 	.word	0x4242043c

08001404 <MX_SPI2_Init>:
 8001404:	b508      	push	{r3, lr}
 8001406:	f44f 7382 	mov.w	r3, #260	; 0x104
 800140a:	480d      	ldr	r0, [pc, #52]	; (8001440 <MX_SPI2_Init+0x3c>)
 800140c:	4a0d      	ldr	r2, [pc, #52]	; (8001444 <MX_SPI2_Init+0x40>)
 800140e:	f44f 7100 	mov.w	r1, #512	; 0x200
 8001412:	e9c0 2300 	strd	r2, r3, [r0]
 8001416:	2300      	movs	r3, #0
 8001418:	2210      	movs	r2, #16
 800141a:	e9c0 3302 	strd	r3, r3, [r0, #8]
 800141e:	e9c0 3304 	strd	r3, r3, [r0, #16]
 8001422:	e9c0 3308 	strd	r3, r3, [r0, #32]
 8001426:	6283      	str	r3, [r0, #40]	; 0x28
 8001428:	230a      	movs	r3, #10
 800142a:	e9c0 1206 	strd	r1, r2, [r0, #24]
 800142e:	62c3      	str	r3, [r0, #44]	; 0x2c
 8001430:	f001 f928 	bl	8002684 <HAL_SPI_Init>
 8001434:	b118      	cbz	r0, 800143e <MX_SPI2_Init+0x3a>
 8001436:	e8bd 4008 	ldmia.w	sp!, {r3, lr}
 800143a:	f7ff beaf 	b.w	800119c <Error_Handler>
 800143e:	bd08      	pop	{r3, pc}
 8001440:	200000ec 	.word	0x200000ec
 8001444:	40003800 	.word	0x40003800

08001448 <HAL_SPI_MspInit>:
 8001448:	b510      	push	{r4, lr}
 800144a:	4604      	mov	r4, r0
 800144c:	b086      	sub	sp, #24
 800144e:	2210      	movs	r2, #16
 8001450:	2100      	movs	r1, #0
 8001452:	a802      	add	r0, sp, #8
 8001454:	f001 fd2e 	bl	8002eb4 <memset>
 8001458:	6822      	ldr	r2, [r4, #0]
 800145a:	4b12      	ldr	r3, [pc, #72]	; (80014a4 <HAL_SPI_MspInit+0x5c>)
 800145c:	429a      	cmp	r2, r3
 800145e:	d11e      	bne.n	800149e <HAL_SPI_MspInit+0x56>
 8001460:	f503 33ec 	add.w	r3, r3, #120832	; 0x1d800
 8001464:	69da      	ldr	r2, [r3, #28]
 8001466:	4810      	ldr	r0, [pc, #64]	; (80014a8 <HAL_SPI_MspInit+0x60>)
 8001468:	f442 4280 	orr.w	r2, r2, #16384	; 0x4000
 800146c:	61da      	str	r2, [r3, #28]
 800146e:	69da      	ldr	r2, [r3, #28]
 8001470:	a902      	add	r1, sp, #8
 8001472:	f402 4280 	and.w	r2, r2, #16384	; 0x4000
 8001476:	9200      	str	r2, [sp, #0]
 8001478:	9a00      	ldr	r2, [sp, #0]
 800147a:	699a      	ldr	r2, [r3, #24]
 800147c:	f042 0208 	orr.w	r2, r2, #8
 8001480:	619a      	str	r2, [r3, #24]
 8001482:	699b      	ldr	r3, [r3, #24]
 8001484:	f44f 4220 	mov.w	r2, #40960	; 0xa000
 8001488:	f003 0308 	and.w	r3, r3, #8
 800148c:	9301      	str	r3, [sp, #4]
 800148e:	9b01      	ldr	r3, [sp, #4]
 8001490:	2302      	movs	r3, #2
 8001492:	e9cd 2302 	strd	r2, r3, [sp, #8]
 8001496:	2303      	movs	r3, #3
 8001498:	9305      	str	r3, [sp, #20]
 800149a:	f000 fa3f 	bl	800191c <HAL_GPIO_Init>
 800149e:	b006      	add	sp, #24
 80014a0:	bd10      	pop	{r4, pc}
 80014a2:	bf00      	nop
 80014a4:	40003800 	.word	0x40003800
 80014a8:	40010c00 	.word	0x40010c00

080014ac <HAL_MspInit>:
 80014ac:	4b0e      	ldr	r3, [pc, #56]	; (80014e8 <HAL_MspInit+0x3c>)
 80014ae:	b082      	sub	sp, #8
 80014b0:	699a      	ldr	r2, [r3, #24]
 80014b2:	f042 0201 	orr.w	r2, r2, #1
 80014b6:	619a      	str	r2, [r3, #24]
 80014b8:	699a      	ldr	r2, [r3, #24]
 80014ba:	f002 0201 	and.w	r2, r2, #1
 80014be:	9200      	str	r2, [sp, #0]
 80014c0:	9a00      	ldr	r2, [sp, #0]
 80014c2:	69da      	ldr	r2, [r3, #28]
 80014c4:	f042 5280 	orr.w	r2, r2, #268435456	; 0x10000000
 80014c8:	61da      	str	r2, [r3, #28]
 80014ca:	69db      	ldr	r3, [r3, #28]
 80014cc:	4a07      	ldr	r2, [pc, #28]	; (80014ec <HAL_MspInit+0x40>)
 80014ce:	f003 5380 	and.w	r3, r3, #268435456	; 0x10000000
 80014d2:	9301      	str	r3, [sp, #4]
 80014d4:	9b01      	ldr	r3, [sp, #4]
 80014d6:	6853      	ldr	r3, [r2, #4]
 80014d8:	f023 63e0 	bic.w	r3, r3, #117440512	; 0x7000000
 80014dc:	f043 7300 	orr.w	r3, r3, #33554432	; 0x2000000
 80014e0:	6053      	str	r3, [r2, #4]
 80014e2:	b002      	add	sp, #8
 80014e4:	4770      	bx	lr
 80014e6:	bf00      	nop
 80014e8:	40021000 	.word	0x40021000
 80014ec:	40010000 	.word	0x40010000

080014f0 <NMI_Handler>:
 80014f0:	e7fe      	b.n	80014f0 <NMI_Handler>

080014f2 <HardFault_Handler>:
 80014f2:	e7fe      	b.n	80014f2 <HardFault_Handler>

080014f4 <MemManage_Handler>:
 80014f4:	e7fe      	b.n	80014f4 <MemManage_Handler>

080014f6 <BusFault_Handler>:
 80014f6:	e7fe      	b.n	80014f6 <BusFault_Handler>

080014f8 <UsageFault_Handler>:
 80014f8:	e7fe      	b.n	80014f8 <UsageFault_Handler>

080014fa <SVC_Handler>:
 80014fa:	4770      	bx	lr

080014fc <DebugMon_Handler>:
 80014fc:	4770      	bx	lr

080014fe <PendSV_Handler>:
 80014fe:	4770      	bx	lr

08001500 <SysTick_Handler>:
 8001500:	f000 b980 	b.w	8001804 <HAL_IncTick>

08001504 <EXTI4_IRQHandler>:
 8001504:	2010      	movs	r0, #16
 8001506:	f000 baf9 	b.w	8001afc <HAL_GPIO_EXTI_IRQHandler>

0800150a <EXTI9_5_IRQHandler>:
 800150a:	2020      	movs	r0, #32
 800150c:	f000 baf6 	b.w	8001afc <HAL_GPIO_EXTI_IRQHandler>

08001510 <TIM2_IRQHandler>:
 8001510:	4801      	ldr	r0, [pc, #4]	; (8001518 <TIM2_IRQHandler+0x8>)
 8001512:	f001 b9eb 	b.w	80028ec <HAL_TIM_IRQHandler>
 8001516:	bf00      	nop
 8001518:	20000144 	.word	0x20000144

0800151c <_sbrk>:
 800151c:	4b0b      	ldr	r3, [pc, #44]	; (800154c <_sbrk+0x30>)
 800151e:	4602      	mov	r2, r0
 8001520:	6819      	ldr	r1, [r3, #0]
 8001522:	b510      	push	{r4, lr}
 8001524:	b909      	cbnz	r1, 800152a <_sbrk+0xe>
 8001526:	490a      	ldr	r1, [pc, #40]	; (8001550 <_sbrk+0x34>)
 8001528:	6019      	str	r1, [r3, #0]
 800152a:	6818      	ldr	r0, [r3, #0]
 800152c:	4909      	ldr	r1, [pc, #36]	; (8001554 <_sbrk+0x38>)
 800152e:	4c0a      	ldr	r4, [pc, #40]	; (8001558 <_sbrk+0x3c>)
 8001530:	4402      	add	r2, r0
 8001532:	1b09      	subs	r1, r1, r4
 8001534:	428a      	cmp	r2, r1
 8001536:	d906      	bls.n	8001546 <_sbrk+0x2a>
 8001538:	f001 fc92 	bl	8002e60 <__errno>
 800153c:	230c      	movs	r3, #12
 800153e:	6003      	str	r3, [r0, #0]
 8001540:	f04f 30ff 	mov.w	r0, #4294967295	; 0xffffffff
 8001544:	bd10      	pop	{r4, pc}
 8001546:	601a      	str	r2, [r3, #0]
 8001548:	e7fc      	b.n	8001544 <_sbrk+0x28>
 800154a:	bf00      	nop
 800154c:	200000cc 	.word	0x200000cc
 8001550:	20000228 	.word	0x20000228
 8001554:	20005000 	.word	0x20005000
 8001558:	00000400 	.word	0x00000400

0800155c <SystemInit>:
 800155c:	4770      	bx	lr
	...

08001560 <MX_TIM2_Init>:
 8001560:	b57f      	push	{r0, r1, r2, r3, r4, r5, r6, lr}
 8001562:	2210      	movs	r2, #16
 8001564:	2100      	movs	r1, #0
 8001566:	a802      	add	r0, sp, #8
 8001568:	f001 fca4 	bl	8002eb4 <memset>
 800156c:	2277      	movs	r2, #119	; 0x77
 800156e:	f04f 4180 	mov.w	r1, #1073741824	; 0x40000000
 8001572:	4814      	ldr	r0, [pc, #80]	; (80015c4 <MX_TIM2_Init+0x64>)
 8001574:	2300      	movs	r3, #0
 8001576:	e9c0 1200 	strd	r1, r2, [r0]
 800157a:	f241 726f 	movw	r2, #5999	; 0x176f
 800157e:	e9cd 3300 	strd	r3, r3, [sp]
 8001582:	e9c0 2303 	strd	r2, r3, [r0, #12]
 8001586:	6083      	str	r3, [r0, #8]
 8001588:	6183      	str	r3, [r0, #24]
 800158a:	f001 fa89 	bl	8002aa0 <HAL_TIM_Base_Init>
 800158e:	b108      	cbz	r0, 8001594 <MX_TIM2_Init+0x34>
 8001590:	f7ff fe04 	bl	800119c <Error_Handler>
 8001594:	f44f 5380 	mov.w	r3, #4096	; 0x1000
 8001598:	480a      	ldr	r0, [pc, #40]	; (80015c4 <MX_TIM2_Init+0x64>)
 800159a:	a902      	add	r1, sp, #8
 800159c:	9302      	str	r3, [sp, #8]
 800159e:	f001 fab5 	bl	8002b0c <HAL_TIM_ConfigClockSource>
 80015a2:	b108      	cbz	r0, 80015a8 <MX_TIM2_Init+0x48>
 80015a4:	f7ff fdfa 	bl	800119c <Error_Handler>
 80015a8:	2300      	movs	r3, #0
 80015aa:	4669      	mov	r1, sp
 80015ac:	4805      	ldr	r0, [pc, #20]	; (80015c4 <MX_TIM2_Init+0x64>)
 80015ae:	e9cd 3300 	strd	r3, r3, [sp]
 80015b2:	f001 fb3f 	bl	8002c34 <HAL_TIMEx_MasterConfigSynchronization>
 80015b6:	b108      	cbz	r0, 80015bc <MX_TIM2_Init+0x5c>
 80015b8:	f7ff fdf0 	bl	800119c <Error_Handler>
 80015bc:	b007      	add	sp, #28
 80015be:	f85d fb04 	ldr.w	pc, [sp], #4
 80015c2:	bf00      	nop
 80015c4:	20000144 	.word	0x20000144

080015c8 <HAL_TIM_Base_MspInit>:
 80015c8:	6803      	ldr	r3, [r0, #0]
 80015ca:	b507      	push	{r0, r1, r2, lr}
 80015cc:	f1b3 4f80 	cmp.w	r3, #1073741824	; 0x40000000
 80015d0:	d115      	bne.n	80015fe <HAL_TIM_Base_MspInit+0x36>
 80015d2:	f503 3304 	add.w	r3, r3, #135168	; 0x21000
 80015d6:	69da      	ldr	r2, [r3, #28]
 80015d8:	201c      	movs	r0, #28
 80015da:	f042 0201 	orr.w	r2, r2, #1
 80015de:	61da      	str	r2, [r3, #28]
 80015e0:	2200      	movs	r2, #0
 80015e2:	69db      	ldr	r3, [r3, #28]
 80015e4:	4611      	mov	r1, r2
 80015e6:	f003 0301 	and.w	r3, r3, #1
 80015ea:	9301      	str	r3, [sp, #4]
 80015ec:	9b01      	ldr	r3, [sp, #4]
 80015ee:	f000 f93f 	bl	8001870 <HAL_NVIC_SetPriority>
 80015f2:	201c      	movs	r0, #28
 80015f4:	b003      	add	sp, #12
 80015f6:	f85d eb04 	ldr.w	lr, [sp], #4
 80015fa:	f000 b96b 	b.w	80018d4 <HAL_NVIC_EnableIRQ>
 80015fe:	b003      	add	sp, #12
 8001600:	f85d fb04 	ldr.w	pc, [sp], #4

08001604 <MX_USART1_UART_Init>:
 8001604:	b508      	push	{r3, lr}
 8001606:	f44f 33e1 	mov.w	r3, #115200	; 0x1c200
 800160a:	480a      	ldr	r0, [pc, #40]	; (8001634 <MX_USART1_UART_Init+0x30>)
 800160c:	4a0a      	ldr	r2, [pc, #40]	; (8001638 <MX_USART1_UART_Init+0x34>)
 800160e:	e9c0 2300 	strd	r2, r3, [r0]
 8001612:	2300      	movs	r3, #0
 8001614:	220c      	movs	r2, #12
 8001616:	e9c0 3302 	strd	r3, r3, [r0, #8]
 800161a:	e9c0 2305 	strd	r2, r3, [r0, #20]
 800161e:	6103      	str	r3, [r0, #16]
 8001620:	61c3      	str	r3, [r0, #28]
 8001622:	f001 fb99 	bl	8002d58 <HAL_UART_Init>
 8001626:	b118      	cbz	r0, 8001630 <MX_USART1_UART_Init+0x2c>
 8001628:	e8bd 4008 	ldmia.w	sp!, {r3, lr}
 800162c:	f7ff bdb6 	b.w	800119c <Error_Handler>
 8001630:	bd08      	pop	{r3, pc}
 8001632:	bf00      	nop
 8001634:	200001d0 	.word	0x200001d0
 8001638:	40013800 	.word	0x40013800

0800163c <MX_USART3_UART_Init>:
 800163c:	b508      	push	{r3, lr}
 800163e:	f44f 33e1 	mov.w	r3, #115200	; 0x1c200
 8001642:	480a      	ldr	r0, [pc, #40]	; (800166c <MX_USART3_UART_Init+0x30>)
 8001644:	4a0a      	ldr	r2, [pc, #40]	; (8001670 <MX_USART3_UART_Init+0x34>)
 8001646:	e9c0 2300 	strd	r2, r3, [r0]
 800164a:	2300      	movs	r3, #0
 800164c:	220c      	movs	r2, #12
 800164e:	e9c0 3302 	strd	r3, r3, [r0, #8]
 8001652:	e9c0 2305 	strd	r2, r3, [r0, #20]
 8001656:	6103      	str	r3, [r0, #16]
 8001658:	61c3      	str	r3, [r0, #28]
 800165a:	f001 fb7d 	bl	8002d58 <HAL_UART_Init>
 800165e:	b118      	cbz	r0, 8001668 <MX_USART3_UART_Init+0x2c>
 8001660:	e8bd 4008 	ldmia.w	sp!, {r3, lr}
 8001664:	f7ff bd9a 	b.w	800119c <Error_Handler>
 8001668:	bd08      	pop	{r3, pc}
 800166a:	bf00      	nop
 800166c:	2000018c 	.word	0x2000018c
 8001670:	40004800 	.word	0x40004800

08001674 <HAL_UART_MspInit>:
 8001674:	2210      	movs	r2, #16
 8001676:	b510      	push	{r4, lr}
 8001678:	4604      	mov	r4, r0
 800167a:	b088      	sub	sp, #32
 800167c:	eb0d 0002 	add.w	r0, sp, r2
 8001680:	2100      	movs	r1, #0
 8001682:	f001 fc17 	bl	8002eb4 <memset>
 8001686:	6823      	ldr	r3, [r4, #0]
 8001688:	4a2b      	ldr	r2, [pc, #172]	; (8001738 <HAL_UART_MspInit+0xc4>)
 800168a:	4293      	cmp	r3, r2
 800168c:	d129      	bne.n	80016e2 <HAL_UART_MspInit+0x6e>
 800168e:	4b2b      	ldr	r3, [pc, #172]	; (800173c <HAL_UART_MspInit+0xc8>)
 8001690:	f44f 7000 	mov.w	r0, #512	; 0x200
 8001694:	699a      	ldr	r2, [r3, #24]
 8001696:	a904      	add	r1, sp, #16
 8001698:	f442 4280 	orr.w	r2, r2, #16384	; 0x4000
 800169c:	619a      	str	r2, [r3, #24]
 800169e:	699a      	ldr	r2, [r3, #24]
 80016a0:	f44f 6480 	mov.w	r4, #1024	; 0x400
 80016a4:	f402 4280 	and.w	r2, r2, #16384	; 0x4000
 80016a8:	9200      	str	r2, [sp, #0]
 80016aa:	9a00      	ldr	r2, [sp, #0]
 80016ac:	699a      	ldr	r2, [r3, #24]
 80016ae:	f042 0204 	orr.w	r2, r2, #4
 80016b2:	619a      	str	r2, [r3, #24]
 80016b4:	699b      	ldr	r3, [r3, #24]
 80016b6:	f003 0304 	and.w	r3, r3, #4
 80016ba:	9301      	str	r3, [sp, #4]
 80016bc:	9b01      	ldr	r3, [sp, #4]
 80016be:	2302      	movs	r3, #2
 80016c0:	e9cd 0304 	strd	r0, r3, [sp, #16]
 80016c4:	2303      	movs	r3, #3
 80016c6:	481e      	ldr	r0, [pc, #120]	; (8001740 <HAL_UART_MspInit+0xcc>)
 80016c8:	9307      	str	r3, [sp, #28]
 80016ca:	f000 f927 	bl	800191c <HAL_GPIO_Init>
 80016ce:	2300      	movs	r3, #0
 80016d0:	e9cd 4304 	strd	r4, r3, [sp, #16]
 80016d4:	481a      	ldr	r0, [pc, #104]	; (8001740 <HAL_UART_MspInit+0xcc>)
 80016d6:	9306      	str	r3, [sp, #24]
 80016d8:	a904      	add	r1, sp, #16
 80016da:	f000 f91f 	bl	800191c <HAL_GPIO_Init>
 80016de:	b008      	add	sp, #32
 80016e0:	bd10      	pop	{r4, pc}
 80016e2:	4a18      	ldr	r2, [pc, #96]	; (8001744 <HAL_UART_MspInit+0xd0>)
 80016e4:	4293      	cmp	r3, r2
 80016e6:	d1fa      	bne.n	80016de <HAL_UART_MspInit+0x6a>
 80016e8:	4b14      	ldr	r3, [pc, #80]	; (800173c <HAL_UART_MspInit+0xc8>)
 80016ea:	4817      	ldr	r0, [pc, #92]	; (8001748 <HAL_UART_MspInit+0xd4>)
 80016ec:	69da      	ldr	r2, [r3, #28]
 80016ee:	a904      	add	r1, sp, #16
 80016f0:	f442 2280 	orr.w	r2, r2, #262144	; 0x40000
 80016f4:	61da      	str	r2, [r3, #28]
 80016f6:	69da      	ldr	r2, [r3, #28]
 80016f8:	f402 2280 	and.w	r2, r2, #262144	; 0x40000
 80016fc:	9202      	str	r2, [sp, #8]
 80016fe:	9a02      	ldr	r2, [sp, #8]
 8001700:	699a      	ldr	r2, [r3, #24]
 8001702:	f042 0208 	orr.w	r2, r2, #8
 8001706:	619a      	str	r2, [r3, #24]
 8001708:	699b      	ldr	r3, [r3, #24]
 800170a:	f44f 6280 	mov.w	r2, #1024	; 0x400
 800170e:	f003 0308 	and.w	r3, r3, #8
 8001712:	9303      	str	r3, [sp, #12]
 8001714:	9b03      	ldr	r3, [sp, #12]
 8001716:	2302      	movs	r3, #2
 8001718:	e9cd 2304 	strd	r2, r3, [sp, #16]
 800171c:	2303      	movs	r3, #3
 800171e:	9307      	str	r3, [sp, #28]
 8001720:	f000 f8fc 	bl	800191c <HAL_GPIO_Init>
 8001724:	f44f 6100 	mov.w	r1, #2048	; 0x800
 8001728:	2300      	movs	r3, #0
 800172a:	4807      	ldr	r0, [pc, #28]	; (8001748 <HAL_UART_MspInit+0xd4>)
 800172c:	e9cd 1304 	strd	r1, r3, [sp, #16]
 8001730:	9306      	str	r3, [sp, #24]
 8001732:	a904      	add	r1, sp, #16
 8001734:	e7d1      	b.n	80016da <HAL_UART_MspInit+0x66>
 8001736:	bf00      	nop
 8001738:	40013800 	.word	0x40013800
 800173c:	40021000 	.word	0x40021000
 8001740:	40010800 	.word	0x40010800
 8001744:	40004800 	.word	0x40004800
 8001748:	40010c00 	.word	0x40010c00

0800174c <Reset_Handler>:
 800174c:	480c      	ldr	r0, [pc, #48]	; (8001780 <LoopFillZerobss+0x12>)
 800174e:	490d      	ldr	r1, [pc, #52]	; (8001784 <LoopFillZerobss+0x16>)
 8001750:	4a0d      	ldr	r2, [pc, #52]	; (8001788 <LoopFillZerobss+0x1a>)
 8001752:	2300      	movs	r3, #0
 8001754:	e002      	b.n	800175c <LoopCopyDataInit>

08001756 <CopyDataInit>:
 8001756:	58d4      	ldr	r4, [r2, r3]
 8001758:	50c4      	str	r4, [r0, r3]
 800175a:	3304      	adds	r3, #4

0800175c <LoopCopyDataInit>:
 800175c:	18c4      	adds	r4, r0, r3
 800175e:	428c      	cmp	r4, r1
 8001760:	d3f9      	bcc.n	8001756 <CopyDataInit>
 8001762:	4a0a      	ldr	r2, [pc, #40]	; (800178c <LoopFillZerobss+0x1e>)
 8001764:	4c0a      	ldr	r4, [pc, #40]	; (8001790 <LoopFillZerobss+0x22>)
 8001766:	2300      	movs	r3, #0
 8001768:	e001      	b.n	800176e <LoopFillZerobss>

0800176a <FillZerobss>:
 800176a:	6013      	str	r3, [r2, #0]
 800176c:	3204      	adds	r2, #4

0800176e <LoopFillZerobss>:
 800176e:	42a2      	cmp	r2, r4
 8001770:	d3fb      	bcc.n	800176a <FillZerobss>
 8001772:	f7ff fef3 	bl	800155c <SystemInit>
 8001776:	f001 fb79 	bl	8002e6c <__libc_init_array>
 800177a:	f7ff fc85 	bl	8001088 <main>
 800177e:	4770      	bx	lr
 8001780:	20000000 	.word	0x20000000
 8001784:	20000080 	.word	0x20000080
 8001788:	08003a5c 	.word	0x08003a5c
 800178c:	20000080 	.word	0x20000080
 8001790:	20000228 	.word	0x20000228

08001794 <ADC1_2_IRQHandler>:
 8001794:	e7fe      	b.n	8001794 <ADC1_2_IRQHandler>
	...

08001798 <HAL_InitTick>:
 8001798:	b538      	push	{r3, r4, r5, lr}
 800179a:	4b0e      	ldr	r3, [pc, #56]	; (80017d4 <HAL_InitTick+0x3c>)
 800179c:	4605      	mov	r5, r0
 800179e:	7818      	ldrb	r0, [r3, #0]
 80017a0:	f44f 737a 	mov.w	r3, #1000	; 0x3e8
 80017a4:	fbb3 f3f0 	udiv	r3, r3, r0
 80017a8:	4a0b      	ldr	r2, [pc, #44]	; (80017d8 <HAL_InitTick+0x40>)
 80017aa:	6810      	ldr	r0, [r2, #0]
 80017ac:	fbb0 f0f3 	udiv	r0, r0, r3
 80017b0:	f000 f89e 	bl	80018f0 <HAL_SYSTICK_Config>
 80017b4:	4604      	mov	r4, r0
 80017b6:	b958      	cbnz	r0, 80017d0 <HAL_InitTick+0x38>
 80017b8:	2d0f      	cmp	r5, #15
 80017ba:	d809      	bhi.n	80017d0 <HAL_InitTick+0x38>
 80017bc:	4602      	mov	r2, r0
 80017be:	4629      	mov	r1, r5
 80017c0:	f04f 30ff 	mov.w	r0, #4294967295	; 0xffffffff
 80017c4:	f000 f854 	bl	8001870 <HAL_NVIC_SetPriority>
 80017c8:	4620      	mov	r0, r4
 80017ca:	4b04      	ldr	r3, [pc, #16]	; (80017dc <HAL_InitTick+0x44>)
 80017cc:	601d      	str	r5, [r3, #0]
 80017ce:	bd38      	pop	{r3, r4, r5, pc}
 80017d0:	2001      	movs	r0, #1
 80017d2:	e7fc      	b.n	80017ce <HAL_InitTick+0x36>
 80017d4:	20000014 	.word	0x20000014
 80017d8:	20000010 	.word	0x20000010
 80017dc:	20000018 	.word	0x20000018

080017e0 <HAL_Init>:
 80017e0:	4a07      	ldr	r2, [pc, #28]	; (8001800 <HAL_Init+0x20>)
 80017e2:	b508      	push	{r3, lr}
 80017e4:	6813      	ldr	r3, [r2, #0]
 80017e6:	2003      	movs	r0, #3
 80017e8:	f043 0310 	orr.w	r3, r3, #16
 80017ec:	6013      	str	r3, [r2, #0]
 80017ee:	f000 f82d 	bl	800184c <HAL_NVIC_SetPriorityGrouping>
 80017f2:	200f      	movs	r0, #15
 80017f4:	f7ff ffd0 	bl	8001798 <HAL_InitTick>
 80017f8:	f7ff fe58 	bl	80014ac <HAL_MspInit>
 80017fc:	2000      	movs	r0, #0
 80017fe:	bd08      	pop	{r3, pc}
 8001800:	40022000 	.word	0x40022000

08001804 <HAL_IncTick>:
 8001804:	4a03      	ldr	r2, [pc, #12]	; (8001814 <HAL_IncTick+0x10>)
 8001806:	4b04      	ldr	r3, [pc, #16]	; (8001818 <HAL_IncTick+0x14>)
 8001808:	6811      	ldr	r1, [r2, #0]
 800180a:	781b      	ldrb	r3, [r3, #0]
 800180c:	440b      	add	r3, r1
 800180e:	6013      	str	r3, [r2, #0]
 8001810:	4770      	bx	lr
 8001812:	bf00      	nop
 8001814:	20000214 	.word	0x20000214
 8001818:	20000014 	.word	0x20000014

0800181c <HAL_GetTick>:
 800181c:	4b01      	ldr	r3, [pc, #4]	; (8001824 <HAL_GetTick+0x8>)
 800181e:	6818      	ldr	r0, [r3, #0]
 8001820:	4770      	bx	lr
 8001822:	bf00      	nop
 8001824:	20000214 	.word	0x20000214

08001828 <HAL_Delay>:
 8001828:	b538      	push	{r3, r4, r5, lr}
 800182a:	4604      	mov	r4, r0
 800182c:	f7ff fff6 	bl	800181c <HAL_GetTick>
 8001830:	4605      	mov	r5, r0
 8001832:	1c63      	adds	r3, r4, #1
 8001834:	bf1e      	ittt	ne
 8001836:	4b04      	ldrne	r3, [pc, #16]	; (8001848 <HAL_Delay+0x20>)
 8001838:	781b      	ldrbne	r3, [r3, #0]
 800183a:	18e4      	addne	r4, r4, r3
 800183c:	f7ff ffee 	bl	800181c <HAL_GetTick>
 8001840:	1b43      	subs	r3, r0, r5
 8001842:	42a3      	cmp	r3, r4
 8001844:	d3fa      	bcc.n	800183c <HAL_Delay+0x14>
 8001846:	bd38      	pop	{r3, r4, r5, pc}
 8001848:	20000014 	.word	0x20000014

0800184c <HAL_NVIC_SetPriorityGrouping>:
 800184c:	4907      	ldr	r1, [pc, #28]	; (800186c <HAL_NVIC_SetPriorityGrouping+0x20>)
 800184e:	0203      	lsls	r3, r0, #8
 8001850:	68ca      	ldr	r2, [r1, #12]
 8001852:	f403 63e0 	and.w	r3, r3, #1792	; 0x700
 8001856:	f422 62e0 	bic.w	r2, r2, #1792	; 0x700
 800185a:	0412      	lsls	r2, r2, #16
 800185c:	0c12      	lsrs	r2, r2, #16
 800185e:	4313      	orrs	r3, r2
 8001860:	f043 63bf 	orr.w	r3, r3, #100139008	; 0x5f80000
 8001864:	f443 3300 	orr.w	r3, r3, #131072	; 0x20000
 8001868:	60cb      	str	r3, [r1, #12]
 800186a:	4770      	bx	lr
 800186c:	e000ed00 	.word	0xe000ed00

08001870 <HAL_NVIC_SetPriority>:
 8001870:	4b16      	ldr	r3, [pc, #88]	; (80018cc <HAL_NVIC_SetPriority+0x5c>)
 8001872:	b530      	push	{r4, r5, lr}
 8001874:	68dc      	ldr	r4, [r3, #12]
 8001876:	f3c4 2402 	ubfx	r4, r4, #8, #3
 800187a:	f1c4 0307 	rsb	r3, r4, #7
 800187e:	1d25      	adds	r5, r4, #4
 8001880:	2b04      	cmp	r3, #4
 8001882:	bf28      	it	cs
 8001884:	2304      	movcs	r3, #4
 8001886:	2d06      	cmp	r5, #6
 8001888:	f04f 35ff 	mov.w	r5, #4294967295	; 0xffffffff
 800188c:	bf98      	it	ls
 800188e:	2400      	movls	r4, #0
 8001890:	fa05 f303 	lsl.w	r3, r5, r3
 8001894:	bf88      	it	hi
 8001896:	3c03      	subhi	r4, #3
 8001898:	ea21 0303 	bic.w	r3, r1, r3
 800189c:	40a3      	lsls	r3, r4
 800189e:	fa05 f404 	lsl.w	r4, r5, r4
 80018a2:	ea22 0204 	bic.w	r2, r2, r4
 80018a6:	2800      	cmp	r0, #0
 80018a8:	ea43 0302 	orr.w	r3, r3, r2
 80018ac:	bfac      	ite	ge
 80018ae:	f100 4060 	addge.w	r0, r0, #3758096384	; 0xe0000000
 80018b2:	4a07      	ldrlt	r2, [pc, #28]	; (80018d0 <HAL_NVIC_SetPriority+0x60>)
 80018b4:	ea4f 1303 	mov.w	r3, r3, lsl #4
 80018b8:	b2db      	uxtb	r3, r3
 80018ba:	bfab      	itete	ge
 80018bc:	f500 4061 	addge.w	r0, r0, #57600	; 0xe100
 80018c0:	f000 000f 	andlt.w	r0, r0, #15
 80018c4:	f880 3300 	strbge.w	r3, [r0, #768]	; 0x300
 80018c8:	5413      	strblt	r3, [r2, r0]
 80018ca:	bd30      	pop	{r4, r5, pc}
 80018cc:	e000ed00 	.word	0xe000ed00
 80018d0:	e000ed14 	.word	0xe000ed14

080018d4 <HAL_NVIC_EnableIRQ>:
 80018d4:	2800      	cmp	r0, #0
 80018d6:	db08      	blt.n	80018ea <HAL_NVIC_EnableIRQ+0x16>
 80018d8:	2301      	movs	r3, #1
 80018da:	0942      	lsrs	r2, r0, #5
 80018dc:	f000 001f 	and.w	r0, r0, #31
 80018e0:	fa03 f000 	lsl.w	r0, r3, r0
 80018e4:	4b01      	ldr	r3, [pc, #4]	; (80018ec <HAL_NVIC_EnableIRQ+0x18>)
 80018e6:	f843 0022 	str.w	r0, [r3, r2, lsl #2]
 80018ea:	4770      	bx	lr
 80018ec:	e000e100 	.word	0xe000e100

080018f0 <HAL_SYSTICK_Config>:
 80018f0:	3801      	subs	r0, #1
 80018f2:	f1b0 7f80 	cmp.w	r0, #16777216	; 0x1000000
 80018f6:	d20a      	bcs.n	800190e <HAL_SYSTICK_Config+0x1e>
 80018f8:	21f0      	movs	r1, #240	; 0xf0
 80018fa:	4b06      	ldr	r3, [pc, #24]	; (8001914 <HAL_SYSTICK_Config+0x24>)
 80018fc:	4a06      	ldr	r2, [pc, #24]	; (8001918 <HAL_SYSTICK_Config+0x28>)
 80018fe:	6058      	str	r0, [r3, #4]
 8001900:	f882 1023 	strb.w	r1, [r2, #35]	; 0x23
 8001904:	2000      	movs	r0, #0
 8001906:	2207      	movs	r2, #7
 8001908:	6098      	str	r0, [r3, #8]
 800190a:	601a      	str	r2, [r3, #0]
 800190c:	4770      	bx	lr
 800190e:	2001      	movs	r0, #1
 8001910:	4770      	bx	lr
 8001912:	bf00      	nop
 8001914:	e000e010 	.word	0xe000e010
 8001918:	e000ed00 	.word	0xe000ed00

0800191c <HAL_GPIO_Init>:
 800191c:	e92d 4ff7 	stmdb	sp!, {r0, r1, r2, r4, r5, r6, r7, r8, r9, sl, fp, lr}
 8001920:	2200      	movs	r2, #0
 8001922:	4616      	mov	r6, r2
 8001924:	4b64      	ldr	r3, [pc, #400]	; (8001ab8 <HAL_GPIO_Init+0x19c>)
 8001926:	f8df c1a0 	ldr.w	ip, [pc, #416]	; 8001ac8 <HAL_GPIO_Init+0x1ac>
 800192a:	f8df e1a0 	ldr.w	lr, [pc, #416]	; 8001acc <HAL_GPIO_Init+0x1b0>
 800192e:	680d      	ldr	r5, [r1, #0]
 8001930:	fa35 f406 	lsrs.w	r4, r5, r6
 8001934:	d102      	bne.n	800193c <HAL_GPIO_Init+0x20>
 8001936:	b003      	add	sp, #12
 8001938:	e8bd 8ff0 	ldmia.w	sp!, {r4, r5, r6, r7, r8, r9, sl, fp, pc}
 800193c:	f04f 0801 	mov.w	r8, #1
 8001940:	fa08 f806 	lsl.w	r8, r8, r6
 8001944:	ea05 0408 	and.w	r4, r5, r8
 8001948:	ea38 0505 	bics.w	r5, r8, r5
 800194c:	d17c      	bne.n	8001a48 <HAL_GPIO_Init+0x12c>
 800194e:	684d      	ldr	r5, [r1, #4]
 8001950:	2d03      	cmp	r5, #3
 8001952:	d807      	bhi.n	8001964 <HAL_GPIO_Init+0x48>
 8001954:	3d01      	subs	r5, #1
 8001956:	2d02      	cmp	r5, #2
 8001958:	f200 8088 	bhi.w	8001a6c <HAL_GPIO_Init+0x150>
 800195c:	e8df f005 	tbb	[pc, r5]
 8001960:	9b96      	.short	0x9b96
 8001962:	a1          	.byte	0xa1
 8001963:	00          	.byte	0x00
 8001964:	2d12      	cmp	r5, #18
 8001966:	f000 8099 	beq.w	8001a9c <HAL_GPIO_Init+0x180>
 800196a:	d86f      	bhi.n	8001a4c <HAL_GPIO_Init+0x130>
 800196c:	2d11      	cmp	r5, #17
 800196e:	f000 808f 	beq.w	8001a90 <HAL_GPIO_Init+0x174>
 8001972:	2cff      	cmp	r4, #255	; 0xff
 8001974:	bf98      	it	ls
 8001976:	4682      	movls	sl, r0
 8001978:	f04f 090f 	mov.w	r9, #15
 800197c:	bf88      	it	hi
 800197e:	f100 0a04 	addhi.w	sl, r0, #4
 8001982:	ea4f 0586 	mov.w	r5, r6, lsl #2
 8001986:	f8da 8000 	ldr.w	r8, [sl]
 800198a:	bf88      	it	hi
 800198c:	3d20      	subhi	r5, #32
 800198e:	fa09 fb05 	lsl.w	fp, r9, r5
 8001992:	ea28 080b 	bic.w	r8, r8, fp
 8001996:	fa02 f505 	lsl.w	r5, r2, r5
 800199a:	ea48 0505 	orr.w	r5, r8, r5
 800199e:	f8ca 5000 	str.w	r5, [sl]
 80019a2:	f8d1 a004 	ldr.w	sl, [r1, #4]
 80019a6:	f01a 5f80 	tst.w	sl, #268435456	; 0x10000000
 80019aa:	d04d      	beq.n	8001a48 <HAL_GPIO_Init+0x12c>
 80019ac:	4f43      	ldr	r7, [pc, #268]	; (8001abc <HAL_GPIO_Init+0x1a0>)
 80019ae:	f026 0803 	bic.w	r8, r6, #3
 80019b2:	69bd      	ldr	r5, [r7, #24]
 80019b4:	f108 4880 	add.w	r8, r8, #1073741824	; 0x40000000
 80019b8:	f045 0501 	orr.w	r5, r5, #1
 80019bc:	61bd      	str	r5, [r7, #24]
 80019be:	69bd      	ldr	r5, [r7, #24]
 80019c0:	f508 3880 	add.w	r8, r8, #65536	; 0x10000
 80019c4:	f005 0501 	and.w	r5, r5, #1
 80019c8:	9501      	str	r5, [sp, #4]
 80019ca:	f006 0b03 	and.w	fp, r6, #3
 80019ce:	9d01      	ldr	r5, [sp, #4]
 80019d0:	ea4f 0b8b 	mov.w	fp, fp, lsl #2
 80019d4:	f8d8 5008 	ldr.w	r5, [r8, #8]
 80019d8:	fa09 f90b 	lsl.w	r9, r9, fp
 80019dc:	ea25 0909 	bic.w	r9, r5, r9
 80019e0:	4d37      	ldr	r5, [pc, #220]	; (8001ac0 <HAL_GPIO_Init+0x1a4>)
 80019e2:	42a8      	cmp	r0, r5
 80019e4:	d061      	beq.n	8001aaa <HAL_GPIO_Init+0x18e>
 80019e6:	f505 6580 	add.w	r5, r5, #1024	; 0x400
 80019ea:	42a8      	cmp	r0, r5
 80019ec:	d05f      	beq.n	8001aae <HAL_GPIO_Init+0x192>
 80019ee:	f505 6580 	add.w	r5, r5, #1024	; 0x400
 80019f2:	42a8      	cmp	r0, r5
 80019f4:	d05d      	beq.n	8001ab2 <HAL_GPIO_Init+0x196>
 80019f6:	f505 6580 	add.w	r5, r5, #1024	; 0x400
 80019fa:	42a8      	cmp	r0, r5
 80019fc:	bf0c      	ite	eq
 80019fe:	2503      	moveq	r5, #3
 8001a00:	2504      	movne	r5, #4
 8001a02:	fa05 f50b 	lsl.w	r5, r5, fp
 8001a06:	ea45 0509 	orr.w	r5, r5, r9
 8001a0a:	f8c8 5008 	str.w	r5, [r8, #8]
 8001a0e:	681d      	ldr	r5, [r3, #0]
 8001a10:	f41a 3f80 	tst.w	sl, #65536	; 0x10000
 8001a14:	bf14      	ite	ne
 8001a16:	4325      	orrne	r5, r4
 8001a18:	43a5      	biceq	r5, r4
 8001a1a:	601d      	str	r5, [r3, #0]
 8001a1c:	685d      	ldr	r5, [r3, #4]
 8001a1e:	f41a 3f00 	tst.w	sl, #131072	; 0x20000
 8001a22:	bf14      	ite	ne
 8001a24:	4325      	orrne	r5, r4
 8001a26:	43a5      	biceq	r5, r4
 8001a28:	605d      	str	r5, [r3, #4]
 8001a2a:	689d      	ldr	r5, [r3, #8]
 8001a2c:	f41a 1f80 	tst.w	sl, #1048576	; 0x100000
 8001a30:	bf14      	ite	ne
 8001a32:	4325      	orrne	r5, r4
 8001a34:	43a5      	biceq	r5, r4
 8001a36:	609d      	str	r5, [r3, #8]
 8001a38:	68dd      	ldr	r5, [r3, #12]
 8001a3a:	f41a 1f00 	tst.w	sl, #2097152	; 0x200000
 8001a3e:	bf14      	ite	ne
 8001a40:	432c      	orrne	r4, r5
 8001a42:	ea25 0404 	biceq.w	r4, r5, r4
 8001a46:	60dc      	str	r4, [r3, #12]
 8001a48:	3601      	adds	r6, #1
 8001a4a:	e770      	b.n	800192e <HAL_GPIO_Init+0x12>
 8001a4c:	4f1d      	ldr	r7, [pc, #116]	; (8001ac4 <HAL_GPIO_Init+0x1a8>)
 8001a4e:	42bd      	cmp	r5, r7
 8001a50:	d00c      	beq.n	8001a6c <HAL_GPIO_Init+0x150>
 8001a52:	d817      	bhi.n	8001a84 <HAL_GPIO_Init+0x168>
 8001a54:	f8df 9078 	ldr.w	r9, [pc, #120]	; 8001ad0 <HAL_GPIO_Init+0x1b4>
 8001a58:	454d      	cmp	r5, r9
 8001a5a:	d007      	beq.n	8001a6c <HAL_GPIO_Init+0x150>
 8001a5c:	f509 2970 	add.w	r9, r9, #983040	; 0xf0000
 8001a60:	454d      	cmp	r5, r9
 8001a62:	d003      	beq.n	8001a6c <HAL_GPIO_Init+0x150>
 8001a64:	f5a9 1980 	sub.w	r9, r9, #1048576	; 0x100000
 8001a68:	454d      	cmp	r5, r9
 8001a6a:	d182      	bne.n	8001972 <HAL_GPIO_Init+0x56>
 8001a6c:	688a      	ldr	r2, [r1, #8]
 8001a6e:	b1d2      	cbz	r2, 8001aa6 <HAL_GPIO_Init+0x18a>
 8001a70:	2a01      	cmp	r2, #1
 8001a72:	bf08      	it	eq
 8001a74:	f8c0 8010 	streq.w	r8, [r0, #16]
 8001a78:	f04f 0208 	mov.w	r2, #8
 8001a7c:	bf18      	it	ne
 8001a7e:	f8c0 8014 	strne.w	r8, [r0, #20]
 8001a82:	e776      	b.n	8001972 <HAL_GPIO_Init+0x56>
 8001a84:	4565      	cmp	r5, ip
 8001a86:	d0f1      	beq.n	8001a6c <HAL_GPIO_Init+0x150>
 8001a88:	4575      	cmp	r5, lr
 8001a8a:	e7ee      	b.n	8001a6a <HAL_GPIO_Init+0x14e>
 8001a8c:	68ca      	ldr	r2, [r1, #12]
 8001a8e:	e770      	b.n	8001972 <HAL_GPIO_Init+0x56>
 8001a90:	68ca      	ldr	r2, [r1, #12]
 8001a92:	3204      	adds	r2, #4
 8001a94:	e76d      	b.n	8001972 <HAL_GPIO_Init+0x56>
 8001a96:	68ca      	ldr	r2, [r1, #12]
 8001a98:	3208      	adds	r2, #8
 8001a9a:	e76a      	b.n	8001972 <HAL_GPIO_Init+0x56>
 8001a9c:	68ca      	ldr	r2, [r1, #12]
 8001a9e:	320c      	adds	r2, #12
 8001aa0:	e767      	b.n	8001972 <HAL_GPIO_Init+0x56>
 8001aa2:	2200      	movs	r2, #0
 8001aa4:	e765      	b.n	8001972 <HAL_GPIO_Init+0x56>
 8001aa6:	2204      	movs	r2, #4
 8001aa8:	e763      	b.n	8001972 <HAL_GPIO_Init+0x56>
 8001aaa:	2500      	movs	r5, #0
 8001aac:	e7a9      	b.n	8001a02 <HAL_GPIO_Init+0xe6>
 8001aae:	2501      	movs	r5, #1
 8001ab0:	e7a7      	b.n	8001a02 <HAL_GPIO_Init+0xe6>
 8001ab2:	2502      	movs	r5, #2
 8001ab4:	e7a5      	b.n	8001a02 <HAL_GPIO_Init+0xe6>
 8001ab6:	bf00      	nop
 8001ab8:	40010400 	.word	0x40010400
 8001abc:	40021000 	.word	0x40021000
 8001ac0:	40010800 	.word	0x40010800
 8001ac4:	10220000 	.word	0x10220000
 8001ac8:	10310000 	.word	0x10310000
 8001acc:	10320000 	.word	0x10320000
 8001ad0:	10120000 	.word	0x10120000

08001ad4 <HAL_GPIO_ReadPin>:
 8001ad4:	6883      	ldr	r3, [r0, #8]
 8001ad6:	4219      	tst	r1, r3
 8001ad8:	bf14      	ite	ne
 8001ada:	2001      	movne	r0, #1
 8001adc:	2000      	moveq	r0, #0
 8001ade:	4770      	bx	lr

08001ae0 <HAL_GPIO_WritePin>:
 8001ae0:	b10a      	cbz	r2, 8001ae6 <HAL_GPIO_WritePin+0x6>
 8001ae2:	6101      	str	r1, [r0, #16]
 8001ae4:	4770      	bx	lr
 8001ae6:	0409      	lsls	r1, r1, #16
 8001ae8:	e7fb      	b.n	8001ae2 <HAL_GPIO_WritePin+0x2>

08001aea <HAL_GPIO_TogglePin>:
 8001aea:	68c3      	ldr	r3, [r0, #12]
 8001aec:	ea01 0203 	and.w	r2, r1, r3
 8001af0:	ea21 0103 	bic.w	r1, r1, r3
 8001af4:	ea41 4102 	orr.w	r1, r1, r2, lsl #16
 8001af8:	6101      	str	r1, [r0, #16]
 8001afa:	4770      	bx	lr

08001afc <HAL_GPIO_EXTI_IRQHandler>:
 8001afc:	4a04      	ldr	r2, [pc, #16]	; (8001b10 <HAL_GPIO_EXTI_IRQHandler+0x14>)
 8001afe:	b508      	push	{r3, lr}
 8001b00:	6951      	ldr	r1, [r2, #20]
 8001b02:	4201      	tst	r1, r0
 8001b04:	d002      	beq.n	8001b0c <HAL_GPIO_EXTI_IRQHandler+0x10>
 8001b06:	6150      	str	r0, [r2, #20]
 8001b08:	f7ff fb18 	bl	800113c <HAL_GPIO_EXTI_Callback>
 8001b0c:	bd08      	pop	{r3, pc}
 8001b0e:	bf00      	nop
 8001b10:	40010400 	.word	0x40010400

08001b14 <HAL_PWR_EnableBkUpAccess>:
 8001b14:	2201      	movs	r2, #1
 8001b16:	4b01      	ldr	r3, [pc, #4]	; (8001b1c <HAL_PWR_EnableBkUpAccess+0x8>)
 8001b18:	601a      	str	r2, [r3, #0]
 8001b1a:	4770      	bx	lr
 8001b1c:	420e0020 	.word	0x420e0020

08001b20 <HAL_RCC_OscConfig>:
 8001b20:	e92d 41f3 	stmdb	sp!, {r0, r1, r4, r5, r6, r7, r8, lr}
 8001b24:	4605      	mov	r5, r0
 8001b26:	b338      	cbz	r0, 8001b78 <HAL_RCC_OscConfig+0x58>
 8001b28:	6803      	ldr	r3, [r0, #0]
 8001b2a:	07db      	lsls	r3, r3, #31
 8001b2c:	d410      	bmi.n	8001b50 <HAL_RCC_OscConfig+0x30>
 8001b2e:	682b      	ldr	r3, [r5, #0]
 8001b30:	079f      	lsls	r7, r3, #30
 8001b32:	d45e      	bmi.n	8001bf2 <HAL_RCC_OscConfig+0xd2>
 8001b34:	682b      	ldr	r3, [r5, #0]
 8001b36:	0719      	lsls	r1, r3, #28
 8001b38:	f100 8095 	bmi.w	8001c66 <HAL_RCC_OscConfig+0x146>
 8001b3c:	682b      	ldr	r3, [r5, #0]
 8001b3e:	075a      	lsls	r2, r3, #29
 8001b40:	f100 80bf 	bmi.w	8001cc2 <HAL_RCC_OscConfig+0x1a2>
 8001b44:	69e8      	ldr	r0, [r5, #28]
 8001b46:	2800      	cmp	r0, #0
 8001b48:	f040 812c 	bne.w	8001da4 <HAL_RCC_OscConfig+0x284>
 8001b4c:	2000      	movs	r0, #0
 8001b4e:	e029      	b.n	8001ba4 <HAL_RCC_OscConfig+0x84>
 8001b50:	4c8f      	ldr	r4, [pc, #572]	; (8001d90 <HAL_RCC_OscConfig+0x270>)
 8001b52:	6863      	ldr	r3, [r4, #4]
 8001b54:	f003 030c 	and.w	r3, r3, #12
 8001b58:	2b04      	cmp	r3, #4
 8001b5a:	d007      	beq.n	8001b6c <HAL_RCC_OscConfig+0x4c>
 8001b5c:	6863      	ldr	r3, [r4, #4]
 8001b5e:	f003 030c 	and.w	r3, r3, #12
 8001b62:	2b08      	cmp	r3, #8
 8001b64:	d10a      	bne.n	8001b7c <HAL_RCC_OscConfig+0x5c>
 8001b66:	6863      	ldr	r3, [r4, #4]
 8001b68:	03de      	lsls	r6, r3, #15
 8001b6a:	d507      	bpl.n	8001b7c <HAL_RCC_OscConfig+0x5c>
 8001b6c:	6823      	ldr	r3, [r4, #0]
 8001b6e:	039c      	lsls	r4, r3, #14
 8001b70:	d5dd      	bpl.n	8001b2e <HAL_RCC_OscConfig+0xe>
 8001b72:	686b      	ldr	r3, [r5, #4]
 8001b74:	2b00      	cmp	r3, #0
 8001b76:	d1da      	bne.n	8001b2e <HAL_RCC_OscConfig+0xe>
 8001b78:	2001      	movs	r0, #1
 8001b7a:	e013      	b.n	8001ba4 <HAL_RCC_OscConfig+0x84>
 8001b7c:	686b      	ldr	r3, [r5, #4]
 8001b7e:	f5b3 3f80 	cmp.w	r3, #65536	; 0x10000
 8001b82:	d112      	bne.n	8001baa <HAL_RCC_OscConfig+0x8a>
 8001b84:	6823      	ldr	r3, [r4, #0]
 8001b86:	f443 3380 	orr.w	r3, r3, #65536	; 0x10000
 8001b8a:	6023      	str	r3, [r4, #0]
 8001b8c:	f7ff fe46 	bl	800181c <HAL_GetTick>
 8001b90:	4606      	mov	r6, r0
 8001b92:	6823      	ldr	r3, [r4, #0]
 8001b94:	0398      	lsls	r0, r3, #14
 8001b96:	d4ca      	bmi.n	8001b2e <HAL_RCC_OscConfig+0xe>
 8001b98:	f7ff fe40 	bl	800181c <HAL_GetTick>
 8001b9c:	1b80      	subs	r0, r0, r6
 8001b9e:	2864      	cmp	r0, #100	; 0x64
 8001ba0:	d9f7      	bls.n	8001b92 <HAL_RCC_OscConfig+0x72>
 8001ba2:	2003      	movs	r0, #3
 8001ba4:	b002      	add	sp, #8
 8001ba6:	e8bd 81f0 	ldmia.w	sp!, {r4, r5, r6, r7, r8, pc}
 8001baa:	b99b      	cbnz	r3, 8001bd4 <HAL_RCC_OscConfig+0xb4>
 8001bac:	6823      	ldr	r3, [r4, #0]
 8001bae:	f423 3380 	bic.w	r3, r3, #65536	; 0x10000
 8001bb2:	6023      	str	r3, [r4, #0]
 8001bb4:	6823      	ldr	r3, [r4, #0]
 8001bb6:	f423 2380 	bic.w	r3, r3, #262144	; 0x40000
 8001bba:	6023      	str	r3, [r4, #0]
 8001bbc:	f7ff fe2e 	bl	800181c <HAL_GetTick>
 8001bc0:	4606      	mov	r6, r0
 8001bc2:	6823      	ldr	r3, [r4, #0]
 8001bc4:	0399      	lsls	r1, r3, #14
 8001bc6:	d5b2      	bpl.n	8001b2e <HAL_RCC_OscConfig+0xe>
 8001bc8:	f7ff fe28 	bl	800181c <HAL_GetTick>
 8001bcc:	1b80      	subs	r0, r0, r6
 8001bce:	2864      	cmp	r0, #100	; 0x64
 8001bd0:	d9f7      	bls.n	8001bc2 <HAL_RCC_OscConfig+0xa2>
 8001bd2:	e7e6      	b.n	8001ba2 <HAL_RCC_OscConfig+0x82>
 8001bd4:	f5b3 2fa0 	cmp.w	r3, #327680	; 0x50000
 8001bd8:	6823      	ldr	r3, [r4, #0]
 8001bda:	d103      	bne.n	8001be4 <HAL_RCC_OscConfig+0xc4>
 8001bdc:	f443 2380 	orr.w	r3, r3, #262144	; 0x40000
 8001be0:	6023      	str	r3, [r4, #0]
 8001be2:	e7cf      	b.n	8001b84 <HAL_RCC_OscConfig+0x64>
 8001be4:	f423 3380 	bic.w	r3, r3, #65536	; 0x10000
 8001be8:	6023      	str	r3, [r4, #0]
 8001bea:	6823      	ldr	r3, [r4, #0]
 8001bec:	f423 2380 	bic.w	r3, r3, #262144	; 0x40000
 8001bf0:	e7cb      	b.n	8001b8a <HAL_RCC_OscConfig+0x6a>
 8001bf2:	4c67      	ldr	r4, [pc, #412]	; (8001d90 <HAL_RCC_OscConfig+0x270>)
 8001bf4:	6863      	ldr	r3, [r4, #4]
 8001bf6:	f013 0f0c 	tst.w	r3, #12
 8001bfa:	d007      	beq.n	8001c0c <HAL_RCC_OscConfig+0xec>
 8001bfc:	6863      	ldr	r3, [r4, #4]
 8001bfe:	f003 030c 	and.w	r3, r3, #12
 8001c02:	2b08      	cmp	r3, #8
 8001c04:	d110      	bne.n	8001c28 <HAL_RCC_OscConfig+0x108>
 8001c06:	6863      	ldr	r3, [r4, #4]
 8001c08:	03da      	lsls	r2, r3, #15
 8001c0a:	d40d      	bmi.n	8001c28 <HAL_RCC_OscConfig+0x108>
 8001c0c:	6823      	ldr	r3, [r4, #0]
 8001c0e:	079b      	lsls	r3, r3, #30
 8001c10:	d502      	bpl.n	8001c18 <HAL_RCC_OscConfig+0xf8>
 8001c12:	692b      	ldr	r3, [r5, #16]
 8001c14:	2b01      	cmp	r3, #1
 8001c16:	d1af      	bne.n	8001b78 <HAL_RCC_OscConfig+0x58>
 8001c18:	6823      	ldr	r3, [r4, #0]
 8001c1a:	696a      	ldr	r2, [r5, #20]
 8001c1c:	f023 03f8 	bic.w	r3, r3, #248	; 0xf8
 8001c20:	ea43 03c2 	orr.w	r3, r3, r2, lsl #3
 8001c24:	6023      	str	r3, [r4, #0]
 8001c26:	e785      	b.n	8001b34 <HAL_RCC_OscConfig+0x14>
 8001c28:	692a      	ldr	r2, [r5, #16]
 8001c2a:	4b5a      	ldr	r3, [pc, #360]	; (8001d94 <HAL_RCC_OscConfig+0x274>)
 8001c2c:	b16a      	cbz	r2, 8001c4a <HAL_RCC_OscConfig+0x12a>
 8001c2e:	2201      	movs	r2, #1
 8001c30:	601a      	str	r2, [r3, #0]
 8001c32:	f7ff fdf3 	bl	800181c <HAL_GetTick>
 8001c36:	4606      	mov	r6, r0
 8001c38:	6823      	ldr	r3, [r4, #0]
 8001c3a:	079f      	lsls	r7, r3, #30
 8001c3c:	d4ec      	bmi.n	8001c18 <HAL_RCC_OscConfig+0xf8>
 8001c3e:	f7ff fded 	bl	800181c <HAL_GetTick>
 8001c42:	1b80      	subs	r0, r0, r6
 8001c44:	2802      	cmp	r0, #2
 8001c46:	d9f7      	bls.n	8001c38 <HAL_RCC_OscConfig+0x118>
 8001c48:	e7ab      	b.n	8001ba2 <HAL_RCC_OscConfig+0x82>
 8001c4a:	601a      	str	r2, [r3, #0]
 8001c4c:	f7ff fde6 	bl	800181c <HAL_GetTick>
 8001c50:	4606      	mov	r6, r0
 8001c52:	6823      	ldr	r3, [r4, #0]
 8001c54:	0798      	lsls	r0, r3, #30
 8001c56:	f57f af6d 	bpl.w	8001b34 <HAL_RCC_OscConfig+0x14>
 8001c5a:	f7ff fddf 	bl	800181c <HAL_GetTick>
 8001c5e:	1b80      	subs	r0, r0, r6
 8001c60:	2802      	cmp	r0, #2
 8001c62:	d9f6      	bls.n	8001c52 <HAL_RCC_OscConfig+0x132>
 8001c64:	e79d      	b.n	8001ba2 <HAL_RCC_OscConfig+0x82>
 8001c66:	69aa      	ldr	r2, [r5, #24]
 8001c68:	4e49      	ldr	r6, [pc, #292]	; (8001d90 <HAL_RCC_OscConfig+0x270>)
 8001c6a:	4b4b      	ldr	r3, [pc, #300]	; (8001d98 <HAL_RCC_OscConfig+0x278>)
 8001c6c:	b1da      	cbz	r2, 8001ca6 <HAL_RCC_OscConfig+0x186>
 8001c6e:	2201      	movs	r2, #1
 8001c70:	601a      	str	r2, [r3, #0]
 8001c72:	f7ff fdd3 	bl	800181c <HAL_GetTick>
 8001c76:	4604      	mov	r4, r0
 8001c78:	6a73      	ldr	r3, [r6, #36]	; 0x24
 8001c7a:	079b      	lsls	r3, r3, #30
 8001c7c:	d50d      	bpl.n	8001c9a <HAL_RCC_OscConfig+0x17a>
 8001c7e:	f44f 52fa 	mov.w	r2, #8000	; 0x1f40
 8001c82:	4b46      	ldr	r3, [pc, #280]	; (8001d9c <HAL_RCC_OscConfig+0x27c>)
 8001c84:	681b      	ldr	r3, [r3, #0]
 8001c86:	fbb3 f3f2 	udiv	r3, r3, r2
 8001c8a:	9301      	str	r3, [sp, #4]
 8001c8c:	bf00      	nop
 8001c8e:	9b01      	ldr	r3, [sp, #4]
 8001c90:	1e5a      	subs	r2, r3, #1
 8001c92:	9201      	str	r2, [sp, #4]
 8001c94:	2b00      	cmp	r3, #0
 8001c96:	d1f9      	bne.n	8001c8c <HAL_RCC_OscConfig+0x16c>
 8001c98:	e750      	b.n	8001b3c <HAL_RCC_OscConfig+0x1c>
 8001c9a:	f7ff fdbf 	bl	800181c <HAL_GetTick>
 8001c9e:	1b00      	subs	r0, r0, r4
 8001ca0:	2802      	cmp	r0, #2
 8001ca2:	d9e9      	bls.n	8001c78 <HAL_RCC_OscConfig+0x158>
 8001ca4:	e77d      	b.n	8001ba2 <HAL_RCC_OscConfig+0x82>
 8001ca6:	601a      	str	r2, [r3, #0]
 8001ca8:	f7ff fdb8 	bl	800181c <HAL_GetTick>
 8001cac:	4604      	mov	r4, r0
 8001cae:	6a73      	ldr	r3, [r6, #36]	; 0x24
 8001cb0:	079f      	lsls	r7, r3, #30
 8001cb2:	f57f af43 	bpl.w	8001b3c <HAL_RCC_OscConfig+0x1c>
 8001cb6:	f7ff fdb1 	bl	800181c <HAL_GetTick>
 8001cba:	1b00      	subs	r0, r0, r4
 8001cbc:	2802      	cmp	r0, #2
 8001cbe:	d9f6      	bls.n	8001cae <HAL_RCC_OscConfig+0x18e>
 8001cc0:	e76f      	b.n	8001ba2 <HAL_RCC_OscConfig+0x82>
 8001cc2:	4c33      	ldr	r4, [pc, #204]	; (8001d90 <HAL_RCC_OscConfig+0x270>)
 8001cc4:	69e3      	ldr	r3, [r4, #28]
 8001cc6:	00d8      	lsls	r0, r3, #3
 8001cc8:	d424      	bmi.n	8001d14 <HAL_RCC_OscConfig+0x1f4>
 8001cca:	2701      	movs	r7, #1
 8001ccc:	69e3      	ldr	r3, [r4, #28]
 8001cce:	f043 5380 	orr.w	r3, r3, #268435456	; 0x10000000
 8001cd2:	61e3      	str	r3, [r4, #28]
 8001cd4:	69e3      	ldr	r3, [r4, #28]
 8001cd6:	f003 5380 	and.w	r3, r3, #268435456	; 0x10000000
 8001cda:	9300      	str	r3, [sp, #0]
 8001cdc:	9b00      	ldr	r3, [sp, #0]
 8001cde:	4e30      	ldr	r6, [pc, #192]	; (8001da0 <HAL_RCC_OscConfig+0x280>)
 8001ce0:	6833      	ldr	r3, [r6, #0]
 8001ce2:	05d9      	lsls	r1, r3, #23
 8001ce4:	d518      	bpl.n	8001d18 <HAL_RCC_OscConfig+0x1f8>
 8001ce6:	68eb      	ldr	r3, [r5, #12]
 8001ce8:	2b01      	cmp	r3, #1
 8001cea:	d126      	bne.n	8001d3a <HAL_RCC_OscConfig+0x21a>
 8001cec:	6a23      	ldr	r3, [r4, #32]
 8001cee:	f043 0301 	orr.w	r3, r3, #1
 8001cf2:	6223      	str	r3, [r4, #32]
 8001cf4:	f7ff fd92 	bl	800181c <HAL_GetTick>
 8001cf8:	f241 3888 	movw	r8, #5000	; 0x1388
 8001cfc:	4606      	mov	r6, r0
 8001cfe:	6a23      	ldr	r3, [r4, #32]
 8001d00:	079b      	lsls	r3, r3, #30
 8001d02:	d53f      	bpl.n	8001d84 <HAL_RCC_OscConfig+0x264>
 8001d04:	2f00      	cmp	r7, #0
 8001d06:	f43f af1d 	beq.w	8001b44 <HAL_RCC_OscConfig+0x24>
 8001d0a:	69e3      	ldr	r3, [r4, #28]
 8001d0c:	f023 5380 	bic.w	r3, r3, #268435456	; 0x10000000
 8001d10:	61e3      	str	r3, [r4, #28]
 8001d12:	e717      	b.n	8001b44 <HAL_RCC_OscConfig+0x24>
 8001d14:	2700      	movs	r7, #0
 8001d16:	e7e2      	b.n	8001cde <HAL_RCC_OscConfig+0x1be>
 8001d18:	6833      	ldr	r3, [r6, #0]
 8001d1a:	f443 7380 	orr.w	r3, r3, #256	; 0x100
 8001d1e:	6033      	str	r3, [r6, #0]
 8001d20:	f7ff fd7c 	bl	800181c <HAL_GetTick>
 8001d24:	4680      	mov	r8, r0
 8001d26:	6833      	ldr	r3, [r6, #0]
 8001d28:	05da      	lsls	r2, r3, #23
 8001d2a:	d4dc      	bmi.n	8001ce6 <HAL_RCC_OscConfig+0x1c6>
 8001d2c:	f7ff fd76 	bl	800181c <HAL_GetTick>
 8001d30:	eba0 0008 	sub.w	r0, r0, r8
 8001d34:	2864      	cmp	r0, #100	; 0x64
 8001d36:	d9f6      	bls.n	8001d26 <HAL_RCC_OscConfig+0x206>
 8001d38:	e733      	b.n	8001ba2 <HAL_RCC_OscConfig+0x82>
 8001d3a:	b9ab      	cbnz	r3, 8001d68 <HAL_RCC_OscConfig+0x248>
 8001d3c:	6a23      	ldr	r3, [r4, #32]
 8001d3e:	f241 3888 	movw	r8, #5000	; 0x1388
 8001d42:	f023 0301 	bic.w	r3, r3, #1
 8001d46:	6223      	str	r3, [r4, #32]
 8001d48:	6a23      	ldr	r3, [r4, #32]
 8001d4a:	f023 0304 	bic.w	r3, r3, #4
 8001d4e:	6223      	str	r3, [r4, #32]
 8001d50:	f7ff fd64 	bl	800181c <HAL_GetTick>
 8001d54:	4606      	mov	r6, r0
 8001d56:	6a23      	ldr	r3, [r4, #32]
 8001d58:	0798      	lsls	r0, r3, #30
 8001d5a:	d5d3      	bpl.n	8001d04 <HAL_RCC_OscConfig+0x1e4>
 8001d5c:	f7ff fd5e 	bl	800181c <HAL_GetTick>
 8001d60:	1b80      	subs	r0, r0, r6
 8001d62:	4540      	cmp	r0, r8
 8001d64:	d9f7      	bls.n	8001d56 <HAL_RCC_OscConfig+0x236>
 8001d66:	e71c      	b.n	8001ba2 <HAL_RCC_OscConfig+0x82>
 8001d68:	2b05      	cmp	r3, #5
 8001d6a:	6a23      	ldr	r3, [r4, #32]
 8001d6c:	d103      	bne.n	8001d76 <HAL_RCC_OscConfig+0x256>
 8001d6e:	f043 0304 	orr.w	r3, r3, #4
 8001d72:	6223      	str	r3, [r4, #32]
 8001d74:	e7ba      	b.n	8001cec <HAL_RCC_OscConfig+0x1cc>
 8001d76:	f023 0301 	bic.w	r3, r3, #1
 8001d7a:	6223      	str	r3, [r4, #32]
 8001d7c:	6a23      	ldr	r3, [r4, #32]
 8001d7e:	f023 0304 	bic.w	r3, r3, #4
 8001d82:	e7b6      	b.n	8001cf2 <HAL_RCC_OscConfig+0x1d2>
 8001d84:	f7ff fd4a 	bl	800181c <HAL_GetTick>
 8001d88:	1b80      	subs	r0, r0, r6
 8001d8a:	4540      	cmp	r0, r8
 8001d8c:	d9b7      	bls.n	8001cfe <HAL_RCC_OscConfig+0x1de>
 8001d8e:	e708      	b.n	8001ba2 <HAL_RCC_OscConfig+0x82>
 8001d90:	40021000 	.word	0x40021000
 8001d94:	42420000 	.word	0x42420000
 8001d98:	42420480 	.word	0x42420480
 8001d9c:	20000010 	.word	0x20000010
 8001da0:	40007000 	.word	0x40007000
 8001da4:	4b2a      	ldr	r3, [pc, #168]	; (8001e50 <HAL_RCC_OscConfig+0x330>)
 8001da6:	685a      	ldr	r2, [r3, #4]
 8001da8:	461c      	mov	r4, r3
 8001daa:	f002 020c 	and.w	r2, r2, #12
 8001dae:	2a08      	cmp	r2, #8
 8001db0:	d03d      	beq.n	8001e2e <HAL_RCC_OscConfig+0x30e>
 8001db2:	2300      	movs	r3, #0
 8001db4:	4e27      	ldr	r6, [pc, #156]	; (8001e54 <HAL_RCC_OscConfig+0x334>)
 8001db6:	2802      	cmp	r0, #2
 8001db8:	6033      	str	r3, [r6, #0]
 8001dba:	d12b      	bne.n	8001e14 <HAL_RCC_OscConfig+0x2f4>
 8001dbc:	f7ff fd2e 	bl	800181c <HAL_GetTick>
 8001dc0:	4607      	mov	r7, r0
 8001dc2:	6823      	ldr	r3, [r4, #0]
 8001dc4:	0199      	lsls	r1, r3, #6
 8001dc6:	d41f      	bmi.n	8001e08 <HAL_RCC_OscConfig+0x2e8>
 8001dc8:	6a2b      	ldr	r3, [r5, #32]
 8001dca:	f5b3 3f80 	cmp.w	r3, #65536	; 0x10000
 8001dce:	d105      	bne.n	8001ddc <HAL_RCC_OscConfig+0x2bc>
 8001dd0:	6862      	ldr	r2, [r4, #4]
 8001dd2:	68a9      	ldr	r1, [r5, #8]
 8001dd4:	f422 3200 	bic.w	r2, r2, #131072	; 0x20000
 8001dd8:	430a      	orrs	r2, r1
 8001dda:	6062      	str	r2, [r4, #4]
 8001ddc:	6a69      	ldr	r1, [r5, #36]	; 0x24
 8001dde:	6862      	ldr	r2, [r4, #4]
 8001de0:	430b      	orrs	r3, r1
 8001de2:	f422 1274 	bic.w	r2, r2, #3997696	; 0x3d0000
 8001de6:	4313      	orrs	r3, r2
 8001de8:	6063      	str	r3, [r4, #4]
 8001dea:	2301      	movs	r3, #1
 8001dec:	6033      	str	r3, [r6, #0]
 8001dee:	f7ff fd15 	bl	800181c <HAL_GetTick>
 8001df2:	4605      	mov	r5, r0
 8001df4:	6823      	ldr	r3, [r4, #0]
 8001df6:	019a      	lsls	r2, r3, #6
 8001df8:	f53f aea8 	bmi.w	8001b4c <HAL_RCC_OscConfig+0x2c>
 8001dfc:	f7ff fd0e 	bl	800181c <HAL_GetTick>
 8001e00:	1b40      	subs	r0, r0, r5
 8001e02:	2802      	cmp	r0, #2
 8001e04:	d9f6      	bls.n	8001df4 <HAL_RCC_OscConfig+0x2d4>
 8001e06:	e6cc      	b.n	8001ba2 <HAL_RCC_OscConfig+0x82>
 8001e08:	f7ff fd08 	bl	800181c <HAL_GetTick>
 8001e0c:	1bc0      	subs	r0, r0, r7
 8001e0e:	2802      	cmp	r0, #2
 8001e10:	d9d7      	bls.n	8001dc2 <HAL_RCC_OscConfig+0x2a2>
 8001e12:	e6c6      	b.n	8001ba2 <HAL_RCC_OscConfig+0x82>
 8001e14:	f7ff fd02 	bl	800181c <HAL_GetTick>
 8001e18:	4605      	mov	r5, r0
 8001e1a:	6823      	ldr	r3, [r4, #0]
 8001e1c:	019b      	lsls	r3, r3, #6
 8001e1e:	f57f ae95 	bpl.w	8001b4c <HAL_RCC_OscConfig+0x2c>
 8001e22:	f7ff fcfb 	bl	800181c <HAL_GetTick>
 8001e26:	1b40      	subs	r0, r0, r5
 8001e28:	2802      	cmp	r0, #2
 8001e2a:	d9f6      	bls.n	8001e1a <HAL_RCC_OscConfig+0x2fa>
 8001e2c:	e6b9      	b.n	8001ba2 <HAL_RCC_OscConfig+0x82>
 8001e2e:	2801      	cmp	r0, #1
 8001e30:	f43f aeb8 	beq.w	8001ba4 <HAL_RCC_OscConfig+0x84>
 8001e34:	685b      	ldr	r3, [r3, #4]
 8001e36:	6a2a      	ldr	r2, [r5, #32]
 8001e38:	f403 3180 	and.w	r1, r3, #65536	; 0x10000
 8001e3c:	4291      	cmp	r1, r2
 8001e3e:	f47f ae9b 	bne.w	8001b78 <HAL_RCC_OscConfig+0x58>
 8001e42:	6a6a      	ldr	r2, [r5, #36]	; 0x24
 8001e44:	f403 1370 	and.w	r3, r3, #3932160	; 0x3c0000
 8001e48:	4293      	cmp	r3, r2
 8001e4a:	f43f ae7f 	beq.w	8001b4c <HAL_RCC_OscConfig+0x2c>
 8001e4e:	e693      	b.n	8001b78 <HAL_RCC_OscConfig+0x58>
 8001e50:	40021000 	.word	0x40021000
 8001e54:	42420060 	.word	0x42420060

08001e58 <HAL_RCC_GetSysClockFreq>:
 8001e58:	b530      	push	{r4, r5, lr}
 8001e5a:	4b18      	ldr	r3, [pc, #96]	; (8001ebc <HAL_RCC_GetSysClockFreq+0x64>)
 8001e5c:	b087      	sub	sp, #28
 8001e5e:	ac02      	add	r4, sp, #8
 8001e60:	f103 0510 	add.w	r5, r3, #16
 8001e64:	4622      	mov	r2, r4
 8001e66:	6818      	ldr	r0, [r3, #0]
 8001e68:	6859      	ldr	r1, [r3, #4]
 8001e6a:	3308      	adds	r3, #8
 8001e6c:	c203      	stmia	r2!, {r0, r1}
 8001e6e:	42ab      	cmp	r3, r5
 8001e70:	4614      	mov	r4, r2
 8001e72:	d1f7      	bne.n	8001e64 <HAL_RCC_GetSysClockFreq+0xc>
 8001e74:	f240 2301 	movw	r3, #513	; 0x201
 8001e78:	4911      	ldr	r1, [pc, #68]	; (8001ec0 <HAL_RCC_GetSysClockFreq+0x68>)
 8001e7a:	f8ad 3004 	strh.w	r3, [sp, #4]
 8001e7e:	684b      	ldr	r3, [r1, #4]
 8001e80:	f003 020c 	and.w	r2, r3, #12
 8001e84:	2a08      	cmp	r2, #8
 8001e86:	d117      	bne.n	8001eb8 <HAL_RCC_GetSysClockFreq+0x60>
 8001e88:	f3c3 4283 	ubfx	r2, r3, #18, #4
 8001e8c:	a806      	add	r0, sp, #24
 8001e8e:	4402      	add	r2, r0
 8001e90:	03db      	lsls	r3, r3, #15
 8001e92:	f812 2c10 	ldrb.w	r2, [r2, #-16]
 8001e96:	d50c      	bpl.n	8001eb2 <HAL_RCC_GetSysClockFreq+0x5a>
 8001e98:	684b      	ldr	r3, [r1, #4]
 8001e9a:	480a      	ldr	r0, [pc, #40]	; (8001ec4 <HAL_RCC_GetSysClockFreq+0x6c>)
 8001e9c:	f3c3 4340 	ubfx	r3, r3, #17, #1
 8001ea0:	4350      	muls	r0, r2
 8001ea2:	aa06      	add	r2, sp, #24
 8001ea4:	4413      	add	r3, r2
 8001ea6:	f813 3c14 	ldrb.w	r3, [r3, #-20]
 8001eaa:	fbb0 f0f3 	udiv	r0, r0, r3
 8001eae:	b007      	add	sp, #28
 8001eb0:	bd30      	pop	{r4, r5, pc}
 8001eb2:	4805      	ldr	r0, [pc, #20]	; (8001ec8 <HAL_RCC_GetSysClockFreq+0x70>)
 8001eb4:	4350      	muls	r0, r2
 8001eb6:	e7fa      	b.n	8001eae <HAL_RCC_GetSysClockFreq+0x56>
 8001eb8:	4802      	ldr	r0, [pc, #8]	; (8001ec4 <HAL_RCC_GetSysClockFreq+0x6c>)
 8001eba:	e7f8      	b.n	8001eae <HAL_RCC_GetSysClockFreq+0x56>
 8001ebc:	08003a0d 	.word	0x08003a0d
 8001ec0:	40021000 	.word	0x40021000
 8001ec4:	007a1200 	.word	0x007a1200
 8001ec8:	003d0900 	.word	0x003d0900

08001ecc <HAL_RCC_ClockConfig>:
 8001ecc:	e92d 41f0 	stmdb	sp!, {r4, r5, r6, r7, r8, lr}
 8001ed0:	460d      	mov	r5, r1
 8001ed2:	4604      	mov	r4, r0
 8001ed4:	b910      	cbnz	r0, 8001edc <HAL_RCC_ClockConfig+0x10>
 8001ed6:	2001      	movs	r0, #1
 8001ed8:	e8bd 81f0 	ldmia.w	sp!, {r4, r5, r6, r7, r8, pc}
 8001edc:	4a44      	ldr	r2, [pc, #272]	; (8001ff0 <HAL_RCC_ClockConfig+0x124>)
 8001ede:	6813      	ldr	r3, [r2, #0]
 8001ee0:	f003 0307 	and.w	r3, r3, #7
 8001ee4:	428b      	cmp	r3, r1
 8001ee6:	d328      	bcc.n	8001f3a <HAL_RCC_ClockConfig+0x6e>
 8001ee8:	6821      	ldr	r1, [r4, #0]
 8001eea:	078e      	lsls	r6, r1, #30
 8001eec:	d430      	bmi.n	8001f50 <HAL_RCC_ClockConfig+0x84>
 8001eee:	07ca      	lsls	r2, r1, #31
 8001ef0:	d443      	bmi.n	8001f7a <HAL_RCC_ClockConfig+0xae>
 8001ef2:	4a3f      	ldr	r2, [pc, #252]	; (8001ff0 <HAL_RCC_ClockConfig+0x124>)
 8001ef4:	6813      	ldr	r3, [r2, #0]
 8001ef6:	f003 0307 	and.w	r3, r3, #7
 8001efa:	42ab      	cmp	r3, r5
 8001efc:	d865      	bhi.n	8001fca <HAL_RCC_ClockConfig+0xfe>
 8001efe:	6822      	ldr	r2, [r4, #0]
 8001f00:	4d3c      	ldr	r5, [pc, #240]	; (8001ff4 <HAL_RCC_ClockConfig+0x128>)
 8001f02:	f012 0f04 	tst.w	r2, #4
 8001f06:	d16c      	bne.n	8001fe2 <HAL_RCC_ClockConfig+0x116>
 8001f08:	0713      	lsls	r3, r2, #28
 8001f0a:	d506      	bpl.n	8001f1a <HAL_RCC_ClockConfig+0x4e>
 8001f0c:	686b      	ldr	r3, [r5, #4]
 8001f0e:	6922      	ldr	r2, [r4, #16]
 8001f10:	f423 5360 	bic.w	r3, r3, #14336	; 0x3800
 8001f14:	ea43 03c2 	orr.w	r3, r3, r2, lsl #3
 8001f18:	606b      	str	r3, [r5, #4]
 8001f1a:	f7ff ff9d 	bl	8001e58 <HAL_RCC_GetSysClockFreq>
 8001f1e:	686b      	ldr	r3, [r5, #4]
 8001f20:	4a35      	ldr	r2, [pc, #212]	; (8001ff8 <HAL_RCC_ClockConfig+0x12c>)
 8001f22:	f3c3 1303 	ubfx	r3, r3, #4, #4
 8001f26:	5cd3      	ldrb	r3, [r2, r3]
 8001f28:	40d8      	lsrs	r0, r3
 8001f2a:	4b34      	ldr	r3, [pc, #208]	; (8001ffc <HAL_RCC_ClockConfig+0x130>)
 8001f2c:	6018      	str	r0, [r3, #0]
 8001f2e:	4b34      	ldr	r3, [pc, #208]	; (8002000 <HAL_RCC_ClockConfig+0x134>)
 8001f30:	6818      	ldr	r0, [r3, #0]
 8001f32:	f7ff fc31 	bl	8001798 <HAL_InitTick>
 8001f36:	2000      	movs	r0, #0
 8001f38:	e7ce      	b.n	8001ed8 <HAL_RCC_ClockConfig+0xc>
 8001f3a:	6813      	ldr	r3, [r2, #0]
 8001f3c:	f023 0307 	bic.w	r3, r3, #7
 8001f40:	430b      	orrs	r3, r1
 8001f42:	6013      	str	r3, [r2, #0]
 8001f44:	6813      	ldr	r3, [r2, #0]
 8001f46:	f003 0307 	and.w	r3, r3, #7
 8001f4a:	428b      	cmp	r3, r1
 8001f4c:	d1c3      	bne.n	8001ed6 <HAL_RCC_ClockConfig+0xa>
 8001f4e:	e7cb      	b.n	8001ee8 <HAL_RCC_ClockConfig+0x1c>
 8001f50:	4b28      	ldr	r3, [pc, #160]	; (8001ff4 <HAL_RCC_ClockConfig+0x128>)
 8001f52:	f011 0f04 	tst.w	r1, #4
 8001f56:	bf1e      	ittt	ne
 8001f58:	685a      	ldrne	r2, [r3, #4]
 8001f5a:	f442 62e0 	orrne.w	r2, r2, #1792	; 0x700
 8001f5e:	605a      	strne	r2, [r3, #4]
 8001f60:	0708      	lsls	r0, r1, #28
 8001f62:	bf42      	ittt	mi
 8001f64:	685a      	ldrmi	r2, [r3, #4]
 8001f66:	f442 5260 	orrmi.w	r2, r2, #14336	; 0x3800
 8001f6a:	605a      	strmi	r2, [r3, #4]
 8001f6c:	685a      	ldr	r2, [r3, #4]
 8001f6e:	68a0      	ldr	r0, [r4, #8]
 8001f70:	f022 02f0 	bic.w	r2, r2, #240	; 0xf0
 8001f74:	4302      	orrs	r2, r0
 8001f76:	605a      	str	r2, [r3, #4]
 8001f78:	e7b9      	b.n	8001eee <HAL_RCC_ClockConfig+0x22>
 8001f7a:	6862      	ldr	r2, [r4, #4]
 8001f7c:	4e1d      	ldr	r6, [pc, #116]	; (8001ff4 <HAL_RCC_ClockConfig+0x128>)
 8001f7e:	2a01      	cmp	r2, #1
 8001f80:	6833      	ldr	r3, [r6, #0]
 8001f82:	d11a      	bne.n	8001fba <HAL_RCC_ClockConfig+0xee>
 8001f84:	f413 3f00 	tst.w	r3, #131072	; 0x20000
 8001f88:	d0a5      	beq.n	8001ed6 <HAL_RCC_ClockConfig+0xa>
 8001f8a:	6873      	ldr	r3, [r6, #4]
 8001f8c:	f241 3888 	movw	r8, #5000	; 0x1388
 8001f90:	f023 0303 	bic.w	r3, r3, #3
 8001f94:	4313      	orrs	r3, r2
 8001f96:	6073      	str	r3, [r6, #4]
 8001f98:	f7ff fc40 	bl	800181c <HAL_GetTick>
 8001f9c:	4607      	mov	r7, r0
 8001f9e:	6873      	ldr	r3, [r6, #4]
 8001fa0:	6862      	ldr	r2, [r4, #4]
 8001fa2:	f003 030c 	and.w	r3, r3, #12
 8001fa6:	ebb3 0f82 	cmp.w	r3, r2, lsl #2
 8001faa:	d0a2      	beq.n	8001ef2 <HAL_RCC_ClockConfig+0x26>
 8001fac:	f7ff fc36 	bl	800181c <HAL_GetTick>
 8001fb0:	1bc0      	subs	r0, r0, r7
 8001fb2:	4540      	cmp	r0, r8
 8001fb4:	d9f3      	bls.n	8001f9e <HAL_RCC_ClockConfig+0xd2>
 8001fb6:	2003      	movs	r0, #3
 8001fb8:	e78e      	b.n	8001ed8 <HAL_RCC_ClockConfig+0xc>
 8001fba:	2a02      	cmp	r2, #2
 8001fbc:	d102      	bne.n	8001fc4 <HAL_RCC_ClockConfig+0xf8>
 8001fbe:	f013 7f00 	tst.w	r3, #33554432	; 0x2000000
 8001fc2:	e7e1      	b.n	8001f88 <HAL_RCC_ClockConfig+0xbc>
 8001fc4:	f013 0f02 	tst.w	r3, #2
 8001fc8:	e7de      	b.n	8001f88 <HAL_RCC_ClockConfig+0xbc>
 8001fca:	6813      	ldr	r3, [r2, #0]
 8001fcc:	f023 0307 	bic.w	r3, r3, #7
 8001fd0:	432b      	orrs	r3, r5
 8001fd2:	6013      	str	r3, [r2, #0]
 8001fd4:	6813      	ldr	r3, [r2, #0]
 8001fd6:	f003 0307 	and.w	r3, r3, #7
 8001fda:	42ab      	cmp	r3, r5
 8001fdc:	f47f af7b 	bne.w	8001ed6 <HAL_RCC_ClockConfig+0xa>
 8001fe0:	e78d      	b.n	8001efe <HAL_RCC_ClockConfig+0x32>
 8001fe2:	686b      	ldr	r3, [r5, #4]
 8001fe4:	68e1      	ldr	r1, [r4, #12]
 8001fe6:	f423 63e0 	bic.w	r3, r3, #1792	; 0x700
 8001fea:	430b      	orrs	r3, r1
 8001fec:	606b      	str	r3, [r5, #4]
 8001fee:	e78b      	b.n	8001f08 <HAL_RCC_ClockConfig+0x3c>
 8001ff0:	40022000 	.word	0x40022000
 8001ff4:	40021000 	.word	0x40021000
 8001ff8:	080039f5 	.word	0x080039f5
 8001ffc:	20000010 	.word	0x20000010
 8002000:	20000018 	.word	0x20000018

08002004 <HAL_RCC_GetPCLK1Freq>:
 8002004:	4b04      	ldr	r3, [pc, #16]	; (8002018 <HAL_RCC_GetPCLK1Freq+0x14>)
 8002006:	4a05      	ldr	r2, [pc, #20]	; (800201c <HAL_RCC_GetPCLK1Freq+0x18>)
 8002008:	685b      	ldr	r3, [r3, #4]
 800200a:	f3c3 2302 	ubfx	r3, r3, #8, #3
 800200e:	5cd3      	ldrb	r3, [r2, r3]
 8002010:	4a03      	ldr	r2, [pc, #12]	; (8002020 <HAL_RCC_GetPCLK1Freq+0x1c>)
 8002012:	6810      	ldr	r0, [r2, #0]
 8002014:	40d8      	lsrs	r0, r3
 8002016:	4770      	bx	lr
 8002018:	40021000 	.word	0x40021000
 800201c:	08003a05 	.word	0x08003a05
 8002020:	20000010 	.word	0x20000010

08002024 <HAL_RCC_GetPCLK2Freq>:
 8002024:	4b04      	ldr	r3, [pc, #16]	; (8002038 <HAL_RCC_GetPCLK2Freq+0x14>)
 8002026:	4a05      	ldr	r2, [pc, #20]	; (800203c <HAL_RCC_GetPCLK2Freq+0x18>)
 8002028:	685b      	ldr	r3, [r3, #4]
 800202a:	f3c3 23c2 	ubfx	r3, r3, #11, #3
 800202e:	5cd3      	ldrb	r3, [r2, r3]
 8002030:	4a03      	ldr	r2, [pc, #12]	; (8002040 <HAL_RCC_GetPCLK2Freq+0x1c>)
 8002032:	6810      	ldr	r0, [r2, #0]
 8002034:	40d8      	lsrs	r0, r3
 8002036:	4770      	bx	lr
 8002038:	40021000 	.word	0x40021000
 800203c:	08003a05 	.word	0x08003a05
 8002040:	20000010 	.word	0x20000010

08002044 <HAL_RCCEx_PeriphCLKConfig>:
 8002044:	6803      	ldr	r3, [r0, #0]
 8002046:	e92d 41f3 	stmdb	sp!, {r0, r1, r4, r5, r6, r7, r8, lr}
 800204a:	07d9      	lsls	r1, r3, #31
 800204c:	4605      	mov	r5, r0
 800204e:	d520      	bpl.n	8002092 <HAL_RCCEx_PeriphCLKConfig+0x4e>
 8002050:	4c35      	ldr	r4, [pc, #212]	; (8002128 <HAL_RCCEx_PeriphCLKConfig+0xe4>)
 8002052:	69e3      	ldr	r3, [r4, #28]
 8002054:	00da      	lsls	r2, r3, #3
 8002056:	d432      	bmi.n	80020be <HAL_RCCEx_PeriphCLKConfig+0x7a>
 8002058:	2701      	movs	r7, #1
 800205a:	69e3      	ldr	r3, [r4, #28]
 800205c:	f043 5380 	orr.w	r3, r3, #268435456	; 0x10000000
 8002060:	61e3      	str	r3, [r4, #28]
 8002062:	69e3      	ldr	r3, [r4, #28]
 8002064:	f003 5380 	and.w	r3, r3, #268435456	; 0x10000000
 8002068:	9301      	str	r3, [sp, #4]
 800206a:	9b01      	ldr	r3, [sp, #4]
 800206c:	4e2f      	ldr	r6, [pc, #188]	; (800212c <HAL_RCCEx_PeriphCLKConfig+0xe8>)
 800206e:	6833      	ldr	r3, [r6, #0]
 8002070:	05db      	lsls	r3, r3, #23
 8002072:	d526      	bpl.n	80020c2 <HAL_RCCEx_PeriphCLKConfig+0x7e>
 8002074:	6a23      	ldr	r3, [r4, #32]
 8002076:	f413 7340 	ands.w	r3, r3, #768	; 0x300
 800207a:	d136      	bne.n	80020ea <HAL_RCCEx_PeriphCLKConfig+0xa6>
 800207c:	6a23      	ldr	r3, [r4, #32]
 800207e:	686a      	ldr	r2, [r5, #4]
 8002080:	f423 7340 	bic.w	r3, r3, #768	; 0x300
 8002084:	4313      	orrs	r3, r2
 8002086:	6223      	str	r3, [r4, #32]
 8002088:	b11f      	cbz	r7, 8002092 <HAL_RCCEx_PeriphCLKConfig+0x4e>
 800208a:	69e3      	ldr	r3, [r4, #28]
 800208c:	f023 5380 	bic.w	r3, r3, #268435456	; 0x10000000
 8002090:	61e3      	str	r3, [r4, #28]
 8002092:	6828      	ldr	r0, [r5, #0]
 8002094:	0783      	lsls	r3, r0, #30
 8002096:	d506      	bpl.n	80020a6 <HAL_RCCEx_PeriphCLKConfig+0x62>
 8002098:	4923      	ldr	r1, [pc, #140]	; (8002128 <HAL_RCCEx_PeriphCLKConfig+0xe4>)
 800209a:	68ab      	ldr	r3, [r5, #8]
 800209c:	684a      	ldr	r2, [r1, #4]
 800209e:	f422 4240 	bic.w	r2, r2, #49152	; 0xc000
 80020a2:	431a      	orrs	r2, r3
 80020a4:	604a      	str	r2, [r1, #4]
 80020a6:	f010 0010 	ands.w	r0, r0, #16
 80020aa:	d01b      	beq.n	80020e4 <HAL_RCCEx_PeriphCLKConfig+0xa0>
 80020ac:	4a1e      	ldr	r2, [pc, #120]	; (8002128 <HAL_RCCEx_PeriphCLKConfig+0xe4>)
 80020ae:	68e9      	ldr	r1, [r5, #12]
 80020b0:	6853      	ldr	r3, [r2, #4]
 80020b2:	2000      	movs	r0, #0
 80020b4:	f423 0380 	bic.w	r3, r3, #4194304	; 0x400000
 80020b8:	430b      	orrs	r3, r1
 80020ba:	6053      	str	r3, [r2, #4]
 80020bc:	e012      	b.n	80020e4 <HAL_RCCEx_PeriphCLKConfig+0xa0>
 80020be:	2700      	movs	r7, #0
 80020c0:	e7d4      	b.n	800206c <HAL_RCCEx_PeriphCLKConfig+0x28>
 80020c2:	6833      	ldr	r3, [r6, #0]
 80020c4:	f443 7380 	orr.w	r3, r3, #256	; 0x100
 80020c8:	6033      	str	r3, [r6, #0]
 80020ca:	f7ff fba7 	bl	800181c <HAL_GetTick>
 80020ce:	4680      	mov	r8, r0
 80020d0:	6833      	ldr	r3, [r6, #0]
 80020d2:	05d8      	lsls	r0, r3, #23
 80020d4:	d4ce      	bmi.n	8002074 <HAL_RCCEx_PeriphCLKConfig+0x30>
 80020d6:	f7ff fba1 	bl	800181c <HAL_GetTick>
 80020da:	eba0 0008 	sub.w	r0, r0, r8
 80020de:	2864      	cmp	r0, #100	; 0x64
 80020e0:	d9f6      	bls.n	80020d0 <HAL_RCCEx_PeriphCLKConfig+0x8c>
 80020e2:	2003      	movs	r0, #3
 80020e4:	b002      	add	sp, #8
 80020e6:	e8bd 81f0 	ldmia.w	sp!, {r4, r5, r6, r7, r8, pc}
 80020ea:	686a      	ldr	r2, [r5, #4]
 80020ec:	f402 7240 	and.w	r2, r2, #768	; 0x300
 80020f0:	429a      	cmp	r2, r3
 80020f2:	d0c3      	beq.n	800207c <HAL_RCCEx_PeriphCLKConfig+0x38>
 80020f4:	2001      	movs	r0, #1
 80020f6:	4a0e      	ldr	r2, [pc, #56]	; (8002130 <HAL_RCCEx_PeriphCLKConfig+0xec>)
 80020f8:	6a23      	ldr	r3, [r4, #32]
 80020fa:	6010      	str	r0, [r2, #0]
 80020fc:	2000      	movs	r0, #0
 80020fe:	f423 7140 	bic.w	r1, r3, #768	; 0x300
 8002102:	6010      	str	r0, [r2, #0]
 8002104:	6221      	str	r1, [r4, #32]
 8002106:	07d9      	lsls	r1, r3, #31
 8002108:	d5b8      	bpl.n	800207c <HAL_RCCEx_PeriphCLKConfig+0x38>
 800210a:	f7ff fb87 	bl	800181c <HAL_GetTick>
 800210e:	f241 3888 	movw	r8, #5000	; 0x1388
 8002112:	4606      	mov	r6, r0
 8002114:	6a23      	ldr	r3, [r4, #32]
 8002116:	079a      	lsls	r2, r3, #30
 8002118:	d4b0      	bmi.n	800207c <HAL_RCCEx_PeriphCLKConfig+0x38>
 800211a:	f7ff fb7f 	bl	800181c <HAL_GetTick>
 800211e:	1b80      	subs	r0, r0, r6
 8002120:	4540      	cmp	r0, r8
 8002122:	d9f7      	bls.n	8002114 <HAL_RCCEx_PeriphCLKConfig+0xd0>
 8002124:	e7dd      	b.n	80020e2 <HAL_RCCEx_PeriphCLKConfig+0x9e>
 8002126:	bf00      	nop
 8002128:	40021000 	.word	0x40021000
 800212c:	40007000 	.word	0x40007000
 8002130:	42420440 	.word	0x42420440

08002134 <HAL_RCCEx_GetPeriphCLKFreq>:
 8002134:	4602      	mov	r2, r0
 8002136:	b570      	push	{r4, r5, r6, lr}
 8002138:	4b34      	ldr	r3, [pc, #208]	; (800220c <HAL_RCCEx_GetPeriphCLKFreq+0xd8>)
 800213a:	b086      	sub	sp, #24
 800213c:	ad02      	add	r5, sp, #8
 800213e:	f103 0610 	add.w	r6, r3, #16
 8002142:	462c      	mov	r4, r5
 8002144:	6818      	ldr	r0, [r3, #0]
 8002146:	6859      	ldr	r1, [r3, #4]
 8002148:	3308      	adds	r3, #8
 800214a:	c403      	stmia	r4!, {r0, r1}
 800214c:	42b3      	cmp	r3, r6
 800214e:	4625      	mov	r5, r4
 8002150:	d1f7      	bne.n	8002142 <HAL_RCCEx_GetPeriphCLKFreq+0xe>
 8002152:	f240 2301 	movw	r3, #513	; 0x201
 8002156:	2a02      	cmp	r2, #2
 8002158:	f8ad 3004 	strh.w	r3, [sp, #4]
 800215c:	d049      	beq.n	80021f2 <HAL_RCCEx_GetPeriphCLKFreq+0xbe>
 800215e:	2a10      	cmp	r2, #16
 8002160:	d003      	beq.n	800216a <HAL_RCCEx_GetPeriphCLKFreq+0x36>
 8002162:	2a01      	cmp	r2, #1
 8002164:	d026      	beq.n	80021b4 <HAL_RCCEx_GetPeriphCLKFreq+0x80>
 8002166:	2000      	movs	r0, #0
 8002168:	e038      	b.n	80021dc <HAL_RCCEx_GetPeriphCLKFreq+0xa8>
 800216a:	4b29      	ldr	r3, [pc, #164]	; (8002210 <HAL_RCCEx_GetPeriphCLKFreq+0xdc>)
 800216c:	6859      	ldr	r1, [r3, #4]
 800216e:	6818      	ldr	r0, [r3, #0]
 8002170:	f010 7080 	ands.w	r0, r0, #16777216	; 0x1000000
 8002174:	d032      	beq.n	80021dc <HAL_RCCEx_GetPeriphCLKFreq+0xa8>
 8002176:	f3c1 4283 	ubfx	r2, r1, #18, #4
 800217a:	a806      	add	r0, sp, #24
 800217c:	4402      	add	r2, r0
 800217e:	f812 0c10 	ldrb.w	r0, [r2, #-16]
 8002182:	03ca      	lsls	r2, r1, #15
 8002184:	bf41      	itttt	mi
 8002186:	685a      	ldrmi	r2, [r3, #4]
 8002188:	a906      	addmi	r1, sp, #24
 800218a:	f3c2 4240 	ubfxmi	r2, r2, #17, #1
 800218e:	1852      	addmi	r2, r2, r1
 8002190:	bf44      	itt	mi
 8002192:	f812 1c14 	ldrbmi.w	r1, [r2, #-20]
 8002196:	4a1f      	ldrmi	r2, [pc, #124]	; (8002214 <HAL_RCCEx_GetPeriphCLKFreq+0xe0>)
 8002198:	685b      	ldr	r3, [r3, #4]
 800219a:	bf4c      	ite	mi
 800219c:	fbb2 f2f1 	udivmi	r2, r2, r1
 80021a0:	4a1d      	ldrpl	r2, [pc, #116]	; (8002218 <HAL_RCCEx_GetPeriphCLKFreq+0xe4>)
 80021a2:	025b      	lsls	r3, r3, #9
 80021a4:	fb02 f000 	mul.w	r0, r2, r0
 80021a8:	d418      	bmi.n	80021dc <HAL_RCCEx_GetPeriphCLKFreq+0xa8>
 80021aa:	2303      	movs	r3, #3
 80021ac:	0040      	lsls	r0, r0, #1
 80021ae:	fbb0 f0f3 	udiv	r0, r0, r3
 80021b2:	e013      	b.n	80021dc <HAL_RCCEx_GetPeriphCLKFreq+0xa8>
 80021b4:	f240 3102 	movw	r1, #770	; 0x302
 80021b8:	4a15      	ldr	r2, [pc, #84]	; (8002210 <HAL_RCCEx_GetPeriphCLKFreq+0xdc>)
 80021ba:	6a13      	ldr	r3, [r2, #32]
 80021bc:	4019      	ands	r1, r3
 80021be:	f5b1 7f81 	cmp.w	r1, #258	; 0x102
 80021c2:	d01f      	beq.n	8002204 <HAL_RCCEx_GetPeriphCLKFreq+0xd0>
 80021c4:	f403 7340 	and.w	r3, r3, #768	; 0x300
 80021c8:	f5b3 7f00 	cmp.w	r3, #512	; 0x200
 80021cc:	d108      	bne.n	80021e0 <HAL_RCCEx_GetPeriphCLKFreq+0xac>
 80021ce:	f649 4340 	movw	r3, #40000	; 0x9c40
 80021d2:	6a50      	ldr	r0, [r2, #36]	; 0x24
 80021d4:	f010 0002 	ands.w	r0, r0, #2
 80021d8:	bf18      	it	ne
 80021da:	4618      	movne	r0, r3
 80021dc:	b006      	add	sp, #24
 80021de:	bd70      	pop	{r4, r5, r6, pc}
 80021e0:	f5b3 7f40 	cmp.w	r3, #768	; 0x300
 80021e4:	d1bf      	bne.n	8002166 <HAL_RCCEx_GetPeriphCLKFreq+0x32>
 80021e6:	6810      	ldr	r0, [r2, #0]
 80021e8:	f24f 4324 	movw	r3, #62500	; 0xf424
 80021ec:	f410 3000 	ands.w	r0, r0, #131072	; 0x20000
 80021f0:	e7f2      	b.n	80021d8 <HAL_RCCEx_GetPeriphCLKFreq+0xa4>
 80021f2:	f7ff ff17 	bl	8002024 <HAL_RCC_GetPCLK2Freq>
 80021f6:	4b06      	ldr	r3, [pc, #24]	; (8002210 <HAL_RCCEx_GetPeriphCLKFreq+0xdc>)
 80021f8:	685b      	ldr	r3, [r3, #4]
 80021fa:	f3c3 3381 	ubfx	r3, r3, #14, #2
 80021fe:	3301      	adds	r3, #1
 8002200:	005b      	lsls	r3, r3, #1
 8002202:	e7d4      	b.n	80021ae <HAL_RCCEx_GetPeriphCLKFreq+0x7a>
 8002204:	f44f 4000 	mov.w	r0, #32768	; 0x8000
 8002208:	e7e8      	b.n	80021dc <HAL_RCCEx_GetPeriphCLKFreq+0xa8>
 800220a:	bf00      	nop
 800220c:	08003a0d 	.word	0x08003a0d
 8002210:	40021000 	.word	0x40021000
 8002214:	007a1200 	.word	0x007a1200
 8002218:	003d0900 	.word	0x003d0900

0800221c <RTC_ReadTimeCounter>:
 800221c:	6803      	ldr	r3, [r0, #0]
 800221e:	b530      	push	{r4, r5, lr}
 8002220:	699a      	ldr	r2, [r3, #24]
 8002222:	69d8      	ldr	r0, [r3, #28]
 8002224:	6999      	ldr	r1, [r3, #24]
 8002226:	b295      	uxth	r5, r2
 8002228:	b28c      	uxth	r4, r1
 800222a:	42a5      	cmp	r5, r4
 800222c:	bf17      	itett	ne
 800222e:	69d8      	ldrne	r0, [r3, #28]
 8002230:	b280      	uxtheq	r0, r0
 8002232:	b280      	uxthne	r0, r0
 8002234:	ea40 4001 	orrne.w	r0, r0, r1, lsl #16
 8002238:	bf08      	it	eq
 800223a:	ea40 4002 	orreq.w	r0, r0, r2, lsl #16
 800223e:	bd30      	pop	{r4, r5, pc}

08002240 <RTC_ReadAlarmCounter>:
 8002240:	6803      	ldr	r3, [r0, #0]
 8002242:	6a18      	ldr	r0, [r3, #32]
 8002244:	6a5b      	ldr	r3, [r3, #36]	; 0x24
 8002246:	b29b      	uxth	r3, r3
 8002248:	ea43 4000 	orr.w	r0, r3, r0, lsl #16
 800224c:	4770      	bx	lr

0800224e <RTC_Bcd2ToByte>:
 800224e:	220a      	movs	r2, #10
 8002250:	0903      	lsrs	r3, r0, #4
 8002252:	f000 000f 	and.w	r0, r0, #15
 8002256:	fb02 0003 	mla	r0, r2, r3, r0
 800225a:	b2c0      	uxtb	r0, r0
 800225c:	4770      	bx	lr

0800225e <RTC_WeekDayNum>:
 800225e:	b530      	push	{r4, r5, lr}
 8002260:	4603      	mov	r3, r0
 8002262:	f500 64fa 	add.w	r4, r0, #2000	; 0x7d0
 8002266:	2017      	movs	r0, #23
 8002268:	2509      	movs	r5, #9
 800226a:	4348      	muls	r0, r1
 800226c:	2902      	cmp	r1, #2
 800226e:	fbb0 f5f5 	udiv	r5, r0, r5
 8002272:	d817      	bhi.n	80022a4 <RTC_WeekDayNum+0x46>
 8002274:	3204      	adds	r2, #4
 8002276:	1910      	adds	r0, r2, r4
 8002278:	f44f 72c8 	mov.w	r2, #400	; 0x190
 800227c:	f203 73cf 	addw	r3, r3, #1999	; 0x7cf
 8002280:	fbb3 f2f2 	udiv	r2, r3, r2
 8002284:	4428      	add	r0, r5
 8002286:	eb00 0093 	add.w	r0, r0, r3, lsr #2
 800228a:	4410      	add	r0, r2
 800228c:	2264      	movs	r2, #100	; 0x64
 800228e:	fbb3 f3f2 	udiv	r3, r3, r2
 8002292:	1ac0      	subs	r0, r0, r3
 8002294:	2307      	movs	r3, #7
 8002296:	fbb0 f3f3 	udiv	r3, r0, r3
 800229a:	ebc3 03c3 	rsb	r3, r3, r3, lsl #3
 800229e:	1ac0      	subs	r0, r0, r3
 80022a0:	b2c0      	uxtb	r0, r0
 80022a2:	bd30      	pop	{r4, r5, pc}
 80022a4:	f44f 73c8 	mov.w	r3, #400	; 0x190
 80022a8:	1c90      	adds	r0, r2, #2
 80022aa:	2264      	movs	r2, #100	; 0x64
 80022ac:	4420      	add	r0, r4
 80022ae:	fbb4 f3f3 	udiv	r3, r4, r3
 80022b2:	4428      	add	r0, r5
 80022b4:	eb00 0094 	add.w	r0, r0, r4, lsr #2
 80022b8:	fbb4 f4f2 	udiv	r4, r4, r2
 80022bc:	4418      	add	r0, r3
 80022be:	1b00      	subs	r0, r0, r4
 80022c0:	e7e8      	b.n	8002294 <RTC_WeekDayNum+0x36>

080022c2 <RTC_EnterInitMode>:
 80022c2:	b538      	push	{r3, r4, r5, lr}
 80022c4:	4604      	mov	r4, r0
 80022c6:	f7ff faa9 	bl	800181c <HAL_GetTick>
 80022ca:	4605      	mov	r5, r0
 80022cc:	6823      	ldr	r3, [r4, #0]
 80022ce:	685a      	ldr	r2, [r3, #4]
 80022d0:	0692      	lsls	r2, r2, #26
 80022d2:	d505      	bpl.n	80022e0 <RTC_EnterInitMode+0x1e>
 80022d4:	2000      	movs	r0, #0
 80022d6:	685a      	ldr	r2, [r3, #4]
 80022d8:	f042 0210 	orr.w	r2, r2, #16
 80022dc:	605a      	str	r2, [r3, #4]
 80022de:	bd38      	pop	{r3, r4, r5, pc}
 80022e0:	f7ff fa9c 	bl	800181c <HAL_GetTick>
 80022e4:	1b40      	subs	r0, r0, r5
 80022e6:	f5b0 7f7a 	cmp.w	r0, #1000	; 0x3e8
 80022ea:	d9ef      	bls.n	80022cc <RTC_EnterInitMode+0xa>
 80022ec:	2003      	movs	r0, #3
 80022ee:	e7f6      	b.n	80022de <RTC_EnterInitMode+0x1c>

080022f0 <RTC_ExitInitMode>:
 80022f0:	6802      	ldr	r2, [r0, #0]
 80022f2:	b538      	push	{r3, r4, r5, lr}
 80022f4:	6853      	ldr	r3, [r2, #4]
 80022f6:	4604      	mov	r4, r0
 80022f8:	f023 0310 	bic.w	r3, r3, #16
 80022fc:	6053      	str	r3, [r2, #4]
 80022fe:	f7ff fa8d 	bl	800181c <HAL_GetTick>
 8002302:	4605      	mov	r5, r0
 8002304:	6823      	ldr	r3, [r4, #0]
 8002306:	685b      	ldr	r3, [r3, #4]
 8002308:	069b      	lsls	r3, r3, #26
 800230a:	d501      	bpl.n	8002310 <RTC_ExitInitMode+0x20>
 800230c:	2000      	movs	r0, #0
 800230e:	bd38      	pop	{r3, r4, r5, pc}
 8002310:	f7ff fa84 	bl	800181c <HAL_GetTick>
 8002314:	1b40      	subs	r0, r0, r5
 8002316:	f5b0 7f7a 	cmp.w	r0, #1000	; 0x3e8
 800231a:	d9f3      	bls.n	8002304 <RTC_ExitInitMode+0x14>
 800231c:	2003      	movs	r0, #3
 800231e:	e7f6      	b.n	800230e <RTC_ExitInitMode+0x1e>

08002320 <RTC_WriteTimeCounter>:
 8002320:	b538      	push	{r3, r4, r5, lr}
 8002322:	4605      	mov	r5, r0
 8002324:	460c      	mov	r4, r1
 8002326:	f7ff ffcc 	bl	80022c2 <RTC_EnterInitMode>
 800232a:	b958      	cbnz	r0, 8002344 <RTC_WriteTimeCounter+0x24>
 800232c:	682b      	ldr	r3, [r5, #0]
 800232e:	0c22      	lsrs	r2, r4, #16
 8002330:	b2a4      	uxth	r4, r4
 8002332:	619a      	str	r2, [r3, #24]
 8002334:	4628      	mov	r0, r5
 8002336:	61dc      	str	r4, [r3, #28]
 8002338:	f7ff ffda 	bl	80022f0 <RTC_ExitInitMode>
 800233c:	3800      	subs	r0, #0
 800233e:	bf18      	it	ne
 8002340:	2001      	movne	r0, #1
 8002342:	bd38      	pop	{r3, r4, r5, pc}
 8002344:	2001      	movs	r0, #1
 8002346:	e7fc      	b.n	8002342 <RTC_WriteTimeCounter+0x22>

08002348 <RTC_WriteAlarmCounter>:
 8002348:	b538      	push	{r3, r4, r5, lr}
 800234a:	4605      	mov	r5, r0
 800234c:	460c      	mov	r4, r1
 800234e:	f7ff ffb8 	bl	80022c2 <RTC_EnterInitMode>
 8002352:	b958      	cbnz	r0, 800236c <RTC_WriteAlarmCounter+0x24>
 8002354:	682b      	ldr	r3, [r5, #0]
 8002356:	0c22      	lsrs	r2, r4, #16
 8002358:	b2a4      	uxth	r4, r4
 800235a:	621a      	str	r2, [r3, #32]
 800235c:	4628      	mov	r0, r5
 800235e:	625c      	str	r4, [r3, #36]	; 0x24
 8002360:	f7ff ffc6 	bl	80022f0 <RTC_ExitInitMode>
 8002364:	3800      	subs	r0, #0
 8002366:	bf18      	it	ne
 8002368:	2001      	movne	r0, #1
 800236a:	bd38      	pop	{r3, r4, r5, pc}
 800236c:	2001      	movs	r0, #1
 800236e:	e7fc      	b.n	800236a <RTC_WriteAlarmCounter+0x22>

08002370 <HAL_RTC_SetTime>:
 8002370:	b570      	push	{r4, r5, r6, lr}
 8002372:	4604      	mov	r4, r0
 8002374:	b1e0      	cbz	r0, 80023b0 <HAL_RTC_SetTime+0x40>
 8002376:	b1d9      	cbz	r1, 80023b0 <HAL_RTC_SetTime+0x40>
 8002378:	7c03      	ldrb	r3, [r0, #16]
 800237a:	2502      	movs	r5, #2
 800237c:	2b01      	cmp	r3, #1
 800237e:	d046      	beq.n	800240e <HAL_RTC_SetTime+0x9e>
 8002380:	2301      	movs	r3, #1
 8002382:	7445      	strb	r5, [r0, #17]
 8002384:	7403      	strb	r3, [r0, #16]
 8002386:	7808      	ldrb	r0, [r1, #0]
 8002388:	784d      	ldrb	r5, [r1, #1]
 800238a:	7889      	ldrb	r1, [r1, #2]
 800238c:	b992      	cbnz	r2, 80023b4 <HAL_RTC_SetTime+0x44>
 800238e:	263c      	movs	r6, #60	; 0x3c
 8002390:	f44f 6361 	mov.w	r3, #3600	; 0xe10
 8002394:	436e      	muls	r6, r5
 8002396:	fb03 6000 	mla	r0, r3, r0, r6
 800239a:	1846      	adds	r6, r0, r1
 800239c:	4631      	mov	r1, r6
 800239e:	4620      	mov	r0, r4
 80023a0:	f7ff ffbe 	bl	8002320 <RTC_WriteTimeCounter>
 80023a4:	4605      	mov	r5, r0
 80023a6:	b1b0      	cbz	r0, 80023d6 <HAL_RTC_SetTime+0x66>
 80023a8:	2304      	movs	r3, #4
 80023aa:	7463      	strb	r3, [r4, #17]
 80023ac:	2300      	movs	r3, #0
 80023ae:	7423      	strb	r3, [r4, #16]
 80023b0:	2501      	movs	r5, #1
 80023b2:	e02c      	b.n	800240e <HAL_RTC_SetTime+0x9e>
 80023b4:	f7ff ff4b 	bl	800224e <RTC_Bcd2ToByte>
 80023b8:	4606      	mov	r6, r0
 80023ba:	4628      	mov	r0, r5
 80023bc:	f7ff ff47 	bl	800224e <RTC_Bcd2ToByte>
 80023c0:	233c      	movs	r3, #60	; 0x3c
 80023c2:	4343      	muls	r3, r0
 80023c4:	f44f 6061 	mov.w	r0, #3600	; 0xe10
 80023c8:	fb00 3606 	mla	r6, r0, r6, r3
 80023cc:	4608      	mov	r0, r1
 80023ce:	f7ff ff3e 	bl	800224e <RTC_Bcd2ToByte>
 80023d2:	4406      	add	r6, r0
 80023d4:	e7e2      	b.n	800239c <HAL_RTC_SetTime+0x2c>
 80023d6:	6822      	ldr	r2, [r4, #0]
 80023d8:	4620      	mov	r0, r4
 80023da:	6853      	ldr	r3, [r2, #4]
 80023dc:	f023 0305 	bic.w	r3, r3, #5
 80023e0:	6053      	str	r3, [r2, #4]
 80023e2:	f7ff ff2d 	bl	8002240 <RTC_ReadAlarmCounter>
 80023e6:	1c43      	adds	r3, r0, #1
 80023e8:	d00d      	beq.n	8002406 <HAL_RTC_SetTime+0x96>
 80023ea:	4286      	cmp	r6, r0
 80023ec:	d90b      	bls.n	8002406 <HAL_RTC_SetTime+0x96>
 80023ee:	f500 31a8 	add.w	r1, r0, #86016	; 0x15000
 80023f2:	f501 71c0 	add.w	r1, r1, #384	; 0x180
 80023f6:	4620      	mov	r0, r4
 80023f8:	f7ff ffa6 	bl	8002348 <RTC_WriteAlarmCounter>
 80023fc:	b118      	cbz	r0, 8002406 <HAL_RTC_SetTime+0x96>
 80023fe:	2304      	movs	r3, #4
 8002400:	7425      	strb	r5, [r4, #16]
 8002402:	7463      	strb	r3, [r4, #17]
 8002404:	e7d4      	b.n	80023b0 <HAL_RTC_SetTime+0x40>
 8002406:	2301      	movs	r3, #1
 8002408:	7463      	strb	r3, [r4, #17]
 800240a:	2300      	movs	r3, #0
 800240c:	7423      	strb	r3, [r4, #16]
 800240e:	4628      	mov	r0, r5
 8002410:	bd70      	pop	{r4, r5, r6, pc}
	...

08002414 <HAL_RTC_SetDate>:
 8002414:	b570      	push	{r4, r5, r6, lr}
 8002416:	460d      	mov	r5, r1
 8002418:	4604      	mov	r4, r0
 800241a:	b350      	cbz	r0, 8002472 <HAL_RTC_SetDate+0x5e>
 800241c:	b349      	cbz	r1, 8002472 <HAL_RTC_SetDate+0x5e>
 800241e:	7c03      	ldrb	r3, [r0, #16]
 8002420:	2002      	movs	r0, #2
 8002422:	2b01      	cmp	r3, #1
 8002424:	d04a      	beq.n	80024bc <HAL_RTC_SetDate+0xa8>
 8002426:	2301      	movs	r3, #1
 8002428:	7460      	strb	r0, [r4, #17]
 800242a:	7423      	strb	r3, [r4, #16]
 800242c:	78c8      	ldrb	r0, [r1, #3]
 800242e:	bb12      	cbnz	r2, 8002476 <HAL_RTC_SetDate+0x62>
 8002430:	73e0      	strb	r0, [r4, #15]
 8002432:	784b      	ldrb	r3, [r1, #1]
 8002434:	7363      	strb	r3, [r4, #13]
 8002436:	788b      	ldrb	r3, [r1, #2]
 8002438:	73a3      	strb	r3, [r4, #14]
 800243a:	7ba2      	ldrb	r2, [r4, #14]
 800243c:	7b61      	ldrb	r1, [r4, #13]
 800243e:	7be0      	ldrb	r0, [r4, #15]
 8002440:	f7ff ff0d 	bl	800225e <RTC_WeekDayNum>
 8002444:	7320      	strb	r0, [r4, #12]
 8002446:	7028      	strb	r0, [r5, #0]
 8002448:	4620      	mov	r0, r4
 800244a:	f7ff fee7 	bl	800221c <RTC_ReadTimeCounter>
 800244e:	4b1c      	ldr	r3, [pc, #112]	; (80024c0 <HAL_RTC_SetDate+0xac>)
 8002450:	4298      	cmp	r0, r3
 8002452:	d92f      	bls.n	80024b4 <HAL_RTC_SetDate+0xa0>
 8002454:	491b      	ldr	r1, [pc, #108]	; (80024c4 <HAL_RTC_SetDate+0xb0>)
 8002456:	fbb0 f6f1 	udiv	r6, r0, r1
 800245a:	fb01 0616 	mls	r6, r1, r6, r0
 800245e:	4620      	mov	r0, r4
 8002460:	4631      	mov	r1, r6
 8002462:	f7ff ff5d 	bl	8002320 <RTC_WriteTimeCounter>
 8002466:	4605      	mov	r5, r0
 8002468:	b188      	cbz	r0, 800248e <HAL_RTC_SetDate+0x7a>
 800246a:	2304      	movs	r3, #4
 800246c:	7463      	strb	r3, [r4, #17]
 800246e:	2300      	movs	r3, #0
 8002470:	7423      	strb	r3, [r4, #16]
 8002472:	2001      	movs	r0, #1
 8002474:	e022      	b.n	80024bc <HAL_RTC_SetDate+0xa8>
 8002476:	f7ff feea 	bl	800224e <RTC_Bcd2ToByte>
 800247a:	73e0      	strb	r0, [r4, #15]
 800247c:	7848      	ldrb	r0, [r1, #1]
 800247e:	f7ff fee6 	bl	800224e <RTC_Bcd2ToByte>
 8002482:	7360      	strb	r0, [r4, #13]
 8002484:	7888      	ldrb	r0, [r1, #2]
 8002486:	f7ff fee2 	bl	800224e <RTC_Bcd2ToByte>
 800248a:	73a0      	strb	r0, [r4, #14]
 800248c:	e7d5      	b.n	800243a <HAL_RTC_SetDate+0x26>
 800248e:	4620      	mov	r0, r4
 8002490:	f7ff fed6 	bl	8002240 <RTC_ReadAlarmCounter>
 8002494:	1c43      	adds	r3, r0, #1
 8002496:	d00d      	beq.n	80024b4 <HAL_RTC_SetDate+0xa0>
 8002498:	4286      	cmp	r6, r0
 800249a:	d90b      	bls.n	80024b4 <HAL_RTC_SetDate+0xa0>
 800249c:	f500 31a8 	add.w	r1, r0, #86016	; 0x15000
 80024a0:	f501 71c0 	add.w	r1, r1, #384	; 0x180
 80024a4:	4620      	mov	r0, r4
 80024a6:	f7ff ff4f 	bl	8002348 <RTC_WriteAlarmCounter>
 80024aa:	b118      	cbz	r0, 80024b4 <HAL_RTC_SetDate+0xa0>
 80024ac:	2304      	movs	r3, #4
 80024ae:	7425      	strb	r5, [r4, #16]
 80024b0:	7463      	strb	r3, [r4, #17]
 80024b2:	e7de      	b.n	8002472 <HAL_RTC_SetDate+0x5e>
 80024b4:	2301      	movs	r3, #1
 80024b6:	2000      	movs	r0, #0
 80024b8:	7463      	strb	r3, [r4, #17]
 80024ba:	7420      	strb	r0, [r4, #16]
 80024bc:	bd70      	pop	{r4, r5, r6, pc}
 80024be:	bf00      	nop
 80024c0:	00015f8f 	.word	0x00015f8f
 80024c4:	00015180 	.word	0x00015180

080024c8 <HAL_RTC_WaitForSynchro>:
 80024c8:	b538      	push	{r3, r4, r5, lr}
 80024ca:	4604      	mov	r4, r0
 80024cc:	b1a8      	cbz	r0, 80024fa <HAL_RTC_WaitForSynchro+0x32>
 80024ce:	6802      	ldr	r2, [r0, #0]
 80024d0:	6853      	ldr	r3, [r2, #4]
 80024d2:	f023 0308 	bic.w	r3, r3, #8
 80024d6:	6053      	str	r3, [r2, #4]
 80024d8:	f7ff f9a0 	bl	800181c <HAL_GetTick>
 80024dc:	4605      	mov	r5, r0
 80024de:	6823      	ldr	r3, [r4, #0]
 80024e0:	685b      	ldr	r3, [r3, #4]
 80024e2:	071b      	lsls	r3, r3, #28
 80024e4:	d501      	bpl.n	80024ea <HAL_RTC_WaitForSynchro+0x22>
 80024e6:	2000      	movs	r0, #0
 80024e8:	bd38      	pop	{r3, r4, r5, pc}
 80024ea:	f7ff f997 	bl	800181c <HAL_GetTick>
 80024ee:	1b40      	subs	r0, r0, r5
 80024f0:	f5b0 7f7a 	cmp.w	r0, #1000	; 0x3e8
 80024f4:	d9f3      	bls.n	80024de <HAL_RTC_WaitForSynchro+0x16>
 80024f6:	2003      	movs	r0, #3
 80024f8:	e7f6      	b.n	80024e8 <HAL_RTC_WaitForSynchro+0x20>
 80024fa:	2001      	movs	r0, #1
 80024fc:	e7f4      	b.n	80024e8 <HAL_RTC_WaitForSynchro+0x20>
	...

08002500 <HAL_RTC_Init>:
 8002500:	b510      	push	{r4, lr}
 8002502:	4604      	mov	r4, r0
 8002504:	b170      	cbz	r0, 8002524 <HAL_RTC_Init+0x24>
 8002506:	7c43      	ldrb	r3, [r0, #17]
 8002508:	f003 02ff 	and.w	r2, r3, #255	; 0xff
 800250c:	b913      	cbnz	r3, 8002514 <HAL_RTC_Init+0x14>
 800250e:	7402      	strb	r2, [r0, #16]
 8002510:	f7fe ff5a 	bl	80013c8 <HAL_RTC_MspInit>
 8002514:	2302      	movs	r3, #2
 8002516:	4620      	mov	r0, r4
 8002518:	7463      	strb	r3, [r4, #17]
 800251a:	f7ff ffd5 	bl	80024c8 <HAL_RTC_WaitForSynchro>
 800251e:	b118      	cbz	r0, 8002528 <HAL_RTC_Init+0x28>
 8002520:	2304      	movs	r3, #4
 8002522:	7463      	strb	r3, [r4, #17]
 8002524:	2001      	movs	r0, #1
 8002526:	e036      	b.n	8002596 <HAL_RTC_Init+0x96>
 8002528:	4620      	mov	r0, r4
 800252a:	f7ff feca 	bl	80022c2 <RTC_EnterInitMode>
 800252e:	2800      	cmp	r0, #0
 8002530:	d1f6      	bne.n	8002520 <HAL_RTC_Init+0x20>
 8002532:	6822      	ldr	r2, [r4, #0]
 8002534:	68a0      	ldr	r0, [r4, #8]
 8002536:	6853      	ldr	r3, [r2, #4]
 8002538:	f023 0307 	bic.w	r3, r3, #7
 800253c:	6053      	str	r3, [r2, #4]
 800253e:	4a16      	ldr	r2, [pc, #88]	; (8002598 <HAL_RTC_Init+0x98>)
 8002540:	b118      	cbz	r0, 800254a <HAL_RTC_Init+0x4a>
 8002542:	6b11      	ldr	r1, [r2, #48]	; 0x30
 8002544:	f021 0101 	bic.w	r1, r1, #1
 8002548:	6311      	str	r1, [r2, #48]	; 0x30
 800254a:	6ad3      	ldr	r3, [r2, #44]	; 0x2c
 800254c:	f423 7360 	bic.w	r3, r3, #896	; 0x380
 8002550:	4303      	orrs	r3, r0
 8002552:	62d3      	str	r3, [r2, #44]	; 0x2c
 8002554:	6860      	ldr	r0, [r4, #4]
 8002556:	1c43      	adds	r3, r0, #1
 8002558:	d105      	bne.n	8002566 <HAL_RTC_Init+0x66>
 800255a:	2001      	movs	r0, #1
 800255c:	f7ff fdea 	bl	8002134 <HAL_RCCEx_GetPeriphCLKFreq>
 8002560:	2800      	cmp	r0, #0
 8002562:	d0dd      	beq.n	8002520 <HAL_RTC_Init+0x20>
 8002564:	3801      	subs	r0, #1
 8002566:	6822      	ldr	r2, [r4, #0]
 8002568:	6893      	ldr	r3, [r2, #8]
 800256a:	f023 030f 	bic.w	r3, r3, #15
 800256e:	ea43 4310 	orr.w	r3, r3, r0, lsr #16
 8002572:	6093      	str	r3, [r2, #8]
 8002574:	68d3      	ldr	r3, [r2, #12]
 8002576:	b280      	uxth	r0, r0
 8002578:	0c1b      	lsrs	r3, r3, #16
 800257a:	041b      	lsls	r3, r3, #16
 800257c:	4318      	orrs	r0, r3
 800257e:	60d0      	str	r0, [r2, #12]
 8002580:	4620      	mov	r0, r4
 8002582:	f7ff feb5 	bl	80022f0 <RTC_ExitInitMode>
 8002586:	2301      	movs	r3, #1
 8002588:	b110      	cbz	r0, 8002590 <HAL_RTC_Init+0x90>
 800258a:	2204      	movs	r2, #4
 800258c:	7462      	strb	r2, [r4, #17]
 800258e:	e7c9      	b.n	8002524 <HAL_RTC_Init+0x24>
 8002590:	7363      	strb	r3, [r4, #13]
 8002592:	81e3      	strh	r3, [r4, #14]
 8002594:	7463      	strb	r3, [r4, #17]
 8002596:	bd10      	pop	{r4, pc}
 8002598:	40006c00 	.word	0x40006c00

0800259c <HAL_RTCEx_BKUPWrite>:
 800259c:	0089      	lsls	r1, r1, #2
 800259e:	f101 4180 	add.w	r1, r1, #1073741824	; 0x40000000
 80025a2:	f501 41d8 	add.w	r1, r1, #27648	; 0x6c00
 80025a6:	b292      	uxth	r2, r2
 80025a8:	600a      	str	r2, [r1, #0]
 80025aa:	4770      	bx	lr

080025ac <HAL_RTCEx_BKUPRead>:
 80025ac:	0089      	lsls	r1, r1, #2
 80025ae:	f101 4180 	add.w	r1, r1, #1073741824	; 0x40000000
 80025b2:	f501 41d8 	add.w	r1, r1, #27648	; 0x6c00
 80025b6:	6808      	ldr	r0, [r1, #0]
 80025b8:	b280      	uxth	r0, r0
 80025ba:	4770      	bx	lr

080025bc <SPI_WaitFlagStateUntilTimeout.constprop.0>:
 80025bc:	e92d 41f3 	stmdb	sp!, {r0, r1, r4, r5, r6, r7, r8, lr}
 80025c0:	461c      	mov	r4, r3
 80025c2:	4616      	mov	r6, r2
 80025c4:	460f      	mov	r7, r1
 80025c6:	4605      	mov	r5, r0
 80025c8:	f7ff f928 	bl	800181c <HAL_GetTick>
 80025cc:	4434      	add	r4, r6
 80025ce:	1a24      	subs	r4, r4, r0
 80025d0:	f7ff f924 	bl	800181c <HAL_GetTick>
 80025d4:	4680      	mov	r8, r0
 80025d6:	4b23      	ldr	r3, [pc, #140]	; (8002664 <SPI_WaitFlagStateUntilTimeout.constprop.0+0xa8>)
 80025d8:	681b      	ldr	r3, [r3, #0]
 80025da:	f3c3 33cb 	ubfx	r3, r3, #15, #12
 80025de:	4363      	muls	r3, r4
 80025e0:	682a      	ldr	r2, [r5, #0]
 80025e2:	9301      	str	r3, [sp, #4]
 80025e4:	6893      	ldr	r3, [r2, #8]
 80025e6:	ea37 0303 	bics.w	r3, r7, r3
 80025ea:	d001      	beq.n	80025f0 <SPI_WaitFlagStateUntilTimeout.constprop.0+0x34>
 80025ec:	2000      	movs	r0, #0
 80025ee:	e02e      	b.n	800264e <SPI_WaitFlagStateUntilTimeout.constprop.0+0x92>
 80025f0:	1c73      	adds	r3, r6, #1
 80025f2:	d0f7      	beq.n	80025e4 <SPI_WaitFlagStateUntilTimeout.constprop.0+0x28>
 80025f4:	f7ff f912 	bl	800181c <HAL_GetTick>
 80025f8:	eba0 0008 	sub.w	r0, r0, r8
 80025fc:	42a0      	cmp	r0, r4
 80025fe:	d329      	bcc.n	8002654 <SPI_WaitFlagStateUntilTimeout.constprop.0+0x98>
 8002600:	682b      	ldr	r3, [r5, #0]
 8002602:	685a      	ldr	r2, [r3, #4]
 8002604:	f022 02e0 	bic.w	r2, r2, #224	; 0xe0
 8002608:	605a      	str	r2, [r3, #4]
 800260a:	686a      	ldr	r2, [r5, #4]
 800260c:	f5b2 7f82 	cmp.w	r2, #260	; 0x104
 8002610:	d10a      	bne.n	8002628 <SPI_WaitFlagStateUntilTimeout.constprop.0+0x6c>
 8002612:	68aa      	ldr	r2, [r5, #8]
 8002614:	f5b2 4f00 	cmp.w	r2, #32768	; 0x8000
 8002618:	d002      	beq.n	8002620 <SPI_WaitFlagStateUntilTimeout.constprop.0+0x64>
 800261a:	f5b2 6f80 	cmp.w	r2, #1024	; 0x400
 800261e:	d103      	bne.n	8002628 <SPI_WaitFlagStateUntilTimeout.constprop.0+0x6c>
 8002620:	681a      	ldr	r2, [r3, #0]
 8002622:	f022 0240 	bic.w	r2, r2, #64	; 0x40
 8002626:	601a      	str	r2, [r3, #0]
 8002628:	6aaa      	ldr	r2, [r5, #40]	; 0x28
 800262a:	f5b2 5f00 	cmp.w	r2, #8192	; 0x2000
 800262e:	d107      	bne.n	8002640 <SPI_WaitFlagStateUntilTimeout.constprop.0+0x84>
 8002630:	681a      	ldr	r2, [r3, #0]
 8002632:	f422 5200 	bic.w	r2, r2, #8192	; 0x2000
 8002636:	601a      	str	r2, [r3, #0]
 8002638:	681a      	ldr	r2, [r3, #0]
 800263a:	f442 5200 	orr.w	r2, r2, #8192	; 0x2000
 800263e:	601a      	str	r2, [r3, #0]
 8002640:	2301      	movs	r3, #1
 8002642:	f885 3051 	strb.w	r3, [r5, #81]	; 0x51
 8002646:	2300      	movs	r3, #0
 8002648:	2003      	movs	r0, #3
 800264a:	f885 3050 	strb.w	r3, [r5, #80]	; 0x50
 800264e:	b002      	add	sp, #8
 8002650:	e8bd 81f0 	ldmia.w	sp!, {r4, r5, r6, r7, r8, pc}
 8002654:	9b01      	ldr	r3, [sp, #4]
 8002656:	2b00      	cmp	r3, #0
 8002658:	9b01      	ldr	r3, [sp, #4]
 800265a:	bf08      	it	eq
 800265c:	2400      	moveq	r4, #0
 800265e:	3b01      	subs	r3, #1
 8002660:	e7be      	b.n	80025e0 <SPI_WaitFlagStateUntilTimeout.constprop.0+0x24>
 8002662:	bf00      	nop
 8002664:	20000010 	.word	0x20000010

08002668 <SPI_EndRxTxTransaction>:
 8002668:	b510      	push	{r4, lr}
 800266a:	4613      	mov	r3, r2
 800266c:	460a      	mov	r2, r1
 800266e:	2180      	movs	r1, #128	; 0x80
 8002670:	4604      	mov	r4, r0
 8002672:	f7ff ffa3 	bl	80025bc <SPI_WaitFlagStateUntilTimeout.constprop.0>
 8002676:	b120      	cbz	r0, 8002682 <SPI_EndRxTxTransaction+0x1a>
 8002678:	2003      	movs	r0, #3
 800267a:	6d63      	ldr	r3, [r4, #84]	; 0x54
 800267c:	f043 0320 	orr.w	r3, r3, #32
 8002680:	6563      	str	r3, [r4, #84]	; 0x54
 8002682:	bd10      	pop	{r4, pc}

08002684 <HAL_SPI_Init>:
 8002684:	b510      	push	{r4, lr}
 8002686:	4604      	mov	r4, r0
 8002688:	2800      	cmp	r0, #0
 800268a:	d051      	beq.n	8002730 <HAL_SPI_Init+0xac>
 800268c:	6a43      	ldr	r3, [r0, #36]	; 0x24
 800268e:	2b00      	cmp	r3, #0
 8002690:	d14a      	bne.n	8002728 <HAL_SPI_Init+0xa4>
 8002692:	6842      	ldr	r2, [r0, #4]
 8002694:	f5b2 7f82 	cmp.w	r2, #260	; 0x104
 8002698:	d000      	beq.n	800269c <HAL_SPI_Init+0x18>
 800269a:	61c3      	str	r3, [r0, #28]
 800269c:	2300      	movs	r3, #0
 800269e:	62a3      	str	r3, [r4, #40]	; 0x28
 80026a0:	f894 3051 	ldrb.w	r3, [r4, #81]	; 0x51
 80026a4:	f003 02ff 	and.w	r2, r3, #255	; 0xff
 80026a8:	b923      	cbnz	r3, 80026b4 <HAL_SPI_Init+0x30>
 80026aa:	4620      	mov	r0, r4
 80026ac:	f884 2050 	strb.w	r2, [r4, #80]	; 0x50
 80026b0:	f7fe feca 	bl	8001448 <HAL_SPI_MspInit>
 80026b4:	2302      	movs	r3, #2
 80026b6:	6822      	ldr	r2, [r4, #0]
 80026b8:	f884 3051 	strb.w	r3, [r4, #81]	; 0x51
 80026bc:	6813      	ldr	r3, [r2, #0]
 80026be:	68a0      	ldr	r0, [r4, #8]
 80026c0:	f023 0340 	bic.w	r3, r3, #64	; 0x40
 80026c4:	6013      	str	r3, [r2, #0]
 80026c6:	6863      	ldr	r3, [r4, #4]
 80026c8:	f400 4004 	and.w	r0, r0, #33792	; 0x8400
 80026cc:	f403 7382 	and.w	r3, r3, #260	; 0x104
 80026d0:	4303      	orrs	r3, r0
 80026d2:	68e0      	ldr	r0, [r4, #12]
 80026d4:	69a1      	ldr	r1, [r4, #24]
 80026d6:	f400 6000 	and.w	r0, r0, #2048	; 0x800
 80026da:	4303      	orrs	r3, r0
 80026dc:	6920      	ldr	r0, [r4, #16]
 80026de:	f000 0002 	and.w	r0, r0, #2
 80026e2:	4303      	orrs	r3, r0
 80026e4:	6960      	ldr	r0, [r4, #20]
 80026e6:	f000 0001 	and.w	r0, r0, #1
 80026ea:	4303      	orrs	r3, r0
 80026ec:	f401 7000 	and.w	r0, r1, #512	; 0x200
 80026f0:	4303      	orrs	r3, r0
 80026f2:	69e0      	ldr	r0, [r4, #28]
 80026f4:	0c09      	lsrs	r1, r1, #16
 80026f6:	f000 0038 	and.w	r0, r0, #56	; 0x38
 80026fa:	4303      	orrs	r3, r0
 80026fc:	6a20      	ldr	r0, [r4, #32]
 80026fe:	f001 0104 	and.w	r1, r1, #4
 8002702:	f000 0080 	and.w	r0, r0, #128	; 0x80
 8002706:	4303      	orrs	r3, r0
 8002708:	6aa0      	ldr	r0, [r4, #40]	; 0x28
 800270a:	f400 5000 	and.w	r0, r0, #8192	; 0x2000
 800270e:	4303      	orrs	r3, r0
 8002710:	6013      	str	r3, [r2, #0]
 8002712:	6051      	str	r1, [r2, #4]
 8002714:	69d3      	ldr	r3, [r2, #28]
 8002716:	2000      	movs	r0, #0
 8002718:	f423 6300 	bic.w	r3, r3, #2048	; 0x800
 800271c:	61d3      	str	r3, [r2, #28]
 800271e:	2301      	movs	r3, #1
 8002720:	6560      	str	r0, [r4, #84]	; 0x54
 8002722:	f884 3051 	strb.w	r3, [r4, #81]	; 0x51
 8002726:	bd10      	pop	{r4, pc}
 8002728:	2300      	movs	r3, #0
 800272a:	e9c0 3304 	strd	r3, r3, [r0, #16]
 800272e:	e7b5      	b.n	800269c <HAL_SPI_Init+0x18>
 8002730:	2001      	movs	r0, #1
 8002732:	e7f8      	b.n	8002726 <HAL_SPI_Init+0xa2>

08002734 <HAL_SPI_Transmit>:
 8002734:	e92d 43f7 	stmdb	sp!, {r0, r1, r2, r4, r5, r6, r7, r8, r9, lr}
 8002738:	461f      	mov	r7, r3
 800273a:	f890 3050 	ldrb.w	r3, [r0, #80]	; 0x50
 800273e:	4604      	mov	r4, r0
 8002740:	2b01      	cmp	r3, #1
 8002742:	460d      	mov	r5, r1
 8002744:	4690      	mov	r8, r2
 8002746:	f000 80a0 	beq.w	800288a <HAL_SPI_Transmit+0x156>
 800274a:	2301      	movs	r3, #1
 800274c:	f880 3050 	strb.w	r3, [r0, #80]	; 0x50
 8002750:	f7ff f864 	bl	800181c <HAL_GetTick>
 8002754:	f894 3051 	ldrb.w	r3, [r4, #81]	; 0x51
 8002758:	4681      	mov	r9, r0
 800275a:	2b01      	cmp	r3, #1
 800275c:	b2d8      	uxtb	r0, r3
 800275e:	f040 8092 	bne.w	8002886 <HAL_SPI_Transmit+0x152>
 8002762:	2d00      	cmp	r5, #0
 8002764:	d061      	beq.n	800282a <HAL_SPI_Transmit+0xf6>
 8002766:	f1b8 0f00 	cmp.w	r8, #0
 800276a:	d05e      	beq.n	800282a <HAL_SPI_Transmit+0xf6>
 800276c:	2303      	movs	r3, #3
 800276e:	f884 3051 	strb.w	r3, [r4, #81]	; 0x51
 8002772:	2300      	movs	r3, #0
 8002774:	6563      	str	r3, [r4, #84]	; 0x54
 8002776:	e9c4 3310 	strd	r3, r3, [r4, #64]	; 0x40
 800277a:	f8a4 8036 	strh.w	r8, [r4, #54]	; 0x36
 800277e:	63a3      	str	r3, [r4, #56]	; 0x38
 8002780:	87a3      	strh	r3, [r4, #60]	; 0x3c
 8002782:	87e3      	strh	r3, [r4, #62]	; 0x3e
 8002784:	68a3      	ldr	r3, [r4, #8]
 8002786:	6826      	ldr	r6, [r4, #0]
 8002788:	f5b3 4f00 	cmp.w	r3, #32768	; 0x8000
 800278c:	6325      	str	r5, [r4, #48]	; 0x30
 800278e:	f8a4 8034 	strh.w	r8, [r4, #52]	; 0x34
 8002792:	d107      	bne.n	80027a4 <HAL_SPI_Transmit+0x70>
 8002794:	6833      	ldr	r3, [r6, #0]
 8002796:	f023 0340 	bic.w	r3, r3, #64	; 0x40
 800279a:	6033      	str	r3, [r6, #0]
 800279c:	6833      	ldr	r3, [r6, #0]
 800279e:	f443 4380 	orr.w	r3, r3, #16384	; 0x4000
 80027a2:	6033      	str	r3, [r6, #0]
 80027a4:	6833      	ldr	r3, [r6, #0]
 80027a6:	68e2      	ldr	r2, [r4, #12]
 80027a8:	065b      	lsls	r3, r3, #25
 80027aa:	bf5e      	ittt	pl
 80027ac:	6833      	ldrpl	r3, [r6, #0]
 80027ae:	f043 0340 	orrpl.w	r3, r3, #64	; 0x40
 80027b2:	6033      	strpl	r3, [r6, #0]
 80027b4:	f5b2 6f00 	cmp.w	r2, #2048	; 0x800
 80027b8:	6863      	ldr	r3, [r4, #4]
 80027ba:	d13f      	bne.n	800283c <HAL_SPI_Transmit+0x108>
 80027bc:	b113      	cbz	r3, 80027c4 <HAL_SPI_Transmit+0x90>
 80027be:	f1b8 0f01 	cmp.w	r8, #1
 80027c2:	d107      	bne.n	80027d4 <HAL_SPI_Transmit+0xa0>
 80027c4:	f835 3b02 	ldrh.w	r3, [r5], #2
 80027c8:	60f3      	str	r3, [r6, #12]
 80027ca:	6325      	str	r5, [r4, #48]	; 0x30
 80027cc:	8ee3      	ldrh	r3, [r4, #54]	; 0x36
 80027ce:	3b01      	subs	r3, #1
 80027d0:	b29b      	uxth	r3, r3
 80027d2:	86e3      	strh	r3, [r4, #54]	; 0x36
 80027d4:	8ee3      	ldrh	r3, [r4, #54]	; 0x36
 80027d6:	b29b      	uxth	r3, r3
 80027d8:	b9a3      	cbnz	r3, 8002804 <HAL_SPI_Transmit+0xd0>
 80027da:	464a      	mov	r2, r9
 80027dc:	4639      	mov	r1, r7
 80027de:	4620      	mov	r0, r4
 80027e0:	f7ff ff42 	bl	8002668 <SPI_EndRxTxTransaction>
 80027e4:	2800      	cmp	r0, #0
 80027e6:	d14b      	bne.n	8002880 <HAL_SPI_Transmit+0x14c>
 80027e8:	68a3      	ldr	r3, [r4, #8]
 80027ea:	b933      	cbnz	r3, 80027fa <HAL_SPI_Transmit+0xc6>
 80027ec:	9301      	str	r3, [sp, #4]
 80027ee:	6823      	ldr	r3, [r4, #0]
 80027f0:	68da      	ldr	r2, [r3, #12]
 80027f2:	9201      	str	r2, [sp, #4]
 80027f4:	689b      	ldr	r3, [r3, #8]
 80027f6:	9301      	str	r3, [sp, #4]
 80027f8:	9b01      	ldr	r3, [sp, #4]
 80027fa:	6d60      	ldr	r0, [r4, #84]	; 0x54
 80027fc:	3800      	subs	r0, #0
 80027fe:	bf18      	it	ne
 8002800:	2001      	movne	r0, #1
 8002802:	e012      	b.n	800282a <HAL_SPI_Transmit+0xf6>
 8002804:	6822      	ldr	r2, [r4, #0]
 8002806:	6893      	ldr	r3, [r2, #8]
 8002808:	0798      	lsls	r0, r3, #30
 800280a:	d505      	bpl.n	8002818 <HAL_SPI_Transmit+0xe4>
 800280c:	6b23      	ldr	r3, [r4, #48]	; 0x30
 800280e:	f833 1b02 	ldrh.w	r1, [r3], #2
 8002812:	60d1      	str	r1, [r2, #12]
 8002814:	6323      	str	r3, [r4, #48]	; 0x30
 8002816:	e7d9      	b.n	80027cc <HAL_SPI_Transmit+0x98>
 8002818:	f7ff f800 	bl	800181c <HAL_GetTick>
 800281c:	eba0 0009 	sub.w	r0, r0, r9
 8002820:	42b8      	cmp	r0, r7
 8002822:	d3d7      	bcc.n	80027d4 <HAL_SPI_Transmit+0xa0>
 8002824:	1c79      	adds	r1, r7, #1
 8002826:	d0d5      	beq.n	80027d4 <HAL_SPI_Transmit+0xa0>
 8002828:	2003      	movs	r0, #3
 800282a:	2301      	movs	r3, #1
 800282c:	f884 3051 	strb.w	r3, [r4, #81]	; 0x51
 8002830:	2300      	movs	r3, #0
 8002832:	f884 3050 	strb.w	r3, [r4, #80]	; 0x50
 8002836:	b003      	add	sp, #12
 8002838:	e8bd 83f0 	ldmia.w	sp!, {r4, r5, r6, r7, r8, r9, pc}
 800283c:	b113      	cbz	r3, 8002844 <HAL_SPI_Transmit+0x110>
 800283e:	f1b8 0f01 	cmp.w	r8, #1
 8002842:	d108      	bne.n	8002856 <HAL_SPI_Transmit+0x122>
 8002844:	782b      	ldrb	r3, [r5, #0]
 8002846:	7333      	strb	r3, [r6, #12]
 8002848:	6b23      	ldr	r3, [r4, #48]	; 0x30
 800284a:	3301      	adds	r3, #1
 800284c:	6323      	str	r3, [r4, #48]	; 0x30
 800284e:	8ee3      	ldrh	r3, [r4, #54]	; 0x36
 8002850:	3b01      	subs	r3, #1
 8002852:	b29b      	uxth	r3, r3
 8002854:	86e3      	strh	r3, [r4, #54]	; 0x36
 8002856:	8ee3      	ldrh	r3, [r4, #54]	; 0x36
 8002858:	b29b      	uxth	r3, r3
 800285a:	2b00      	cmp	r3, #0
 800285c:	d0bd      	beq.n	80027da <HAL_SPI_Transmit+0xa6>
 800285e:	6823      	ldr	r3, [r4, #0]
 8002860:	689a      	ldr	r2, [r3, #8]
 8002862:	0792      	lsls	r2, r2, #30
 8002864:	d503      	bpl.n	800286e <HAL_SPI_Transmit+0x13a>
 8002866:	6b22      	ldr	r2, [r4, #48]	; 0x30
 8002868:	7812      	ldrb	r2, [r2, #0]
 800286a:	731a      	strb	r2, [r3, #12]
 800286c:	e7ec      	b.n	8002848 <HAL_SPI_Transmit+0x114>
 800286e:	f7fe ffd5 	bl	800181c <HAL_GetTick>
 8002872:	eba0 0009 	sub.w	r0, r0, r9
 8002876:	42b8      	cmp	r0, r7
 8002878:	d3ed      	bcc.n	8002856 <HAL_SPI_Transmit+0x122>
 800287a:	1c7b      	adds	r3, r7, #1
 800287c:	d0eb      	beq.n	8002856 <HAL_SPI_Transmit+0x122>
 800287e:	e7d3      	b.n	8002828 <HAL_SPI_Transmit+0xf4>
 8002880:	2320      	movs	r3, #32
 8002882:	6563      	str	r3, [r4, #84]	; 0x54
 8002884:	e7b0      	b.n	80027e8 <HAL_SPI_Transmit+0xb4>
 8002886:	2002      	movs	r0, #2
 8002888:	e7cf      	b.n	800282a <HAL_SPI_Transmit+0xf6>
 800288a:	2002      	movs	r0, #2
 800288c:	e7d3      	b.n	8002836 <HAL_SPI_Transmit+0x102>
	...

08002890 <HAL_TIM_Base_Start_IT>:
 8002890:	f890 303d 	ldrb.w	r3, [r0, #61]	; 0x3d
 8002894:	2b01      	cmp	r3, #1
 8002896:	d120      	bne.n	80028da <HAL_TIM_Base_Start_IT+0x4a>
 8002898:	2302      	movs	r3, #2
 800289a:	f880 303d 	strb.w	r3, [r0, #61]	; 0x3d
 800289e:	6803      	ldr	r3, [r0, #0]
 80028a0:	68da      	ldr	r2, [r3, #12]
 80028a2:	f042 0201 	orr.w	r2, r2, #1
 80028a6:	60da      	str	r2, [r3, #12]
 80028a8:	4a0d      	ldr	r2, [pc, #52]	; (80028e0 <HAL_TIM_Base_Start_IT+0x50>)
 80028aa:	4293      	cmp	r3, r2
 80028ac:	d00a      	beq.n	80028c4 <HAL_TIM_Base_Start_IT+0x34>
 80028ae:	f1b3 4f80 	cmp.w	r3, #1073741824	; 0x40000000
 80028b2:	d007      	beq.n	80028c4 <HAL_TIM_Base_Start_IT+0x34>
 80028b4:	f5a2 3294 	sub.w	r2, r2, #75776	; 0x12800
 80028b8:	4293      	cmp	r3, r2
 80028ba:	d003      	beq.n	80028c4 <HAL_TIM_Base_Start_IT+0x34>
 80028bc:	f502 6280 	add.w	r2, r2, #1024	; 0x400
 80028c0:	4293      	cmp	r3, r2
 80028c2:	d104      	bne.n	80028ce <HAL_TIM_Base_Start_IT+0x3e>
 80028c4:	689a      	ldr	r2, [r3, #8]
 80028c6:	f002 0207 	and.w	r2, r2, #7
 80028ca:	2a06      	cmp	r2, #6
 80028cc:	d003      	beq.n	80028d6 <HAL_TIM_Base_Start_IT+0x46>
 80028ce:	681a      	ldr	r2, [r3, #0]
 80028d0:	f042 0201 	orr.w	r2, r2, #1
 80028d4:	601a      	str	r2, [r3, #0]
 80028d6:	2000      	movs	r0, #0
 80028d8:	4770      	bx	lr
 80028da:	2001      	movs	r0, #1
 80028dc:	4770      	bx	lr
 80028de:	bf00      	nop
 80028e0:	40012c00 	.word	0x40012c00

080028e4 <HAL_TIM_OC_DelayElapsedCallback>:
 80028e4:	4770      	bx	lr

080028e6 <HAL_TIM_IC_CaptureCallback>:
 80028e6:	4770      	bx	lr

080028e8 <HAL_TIM_PWM_PulseFinishedCallback>:
 80028e8:	4770      	bx	lr

080028ea <HAL_TIM_TriggerCallback>:
 80028ea:	4770      	bx	lr

080028ec <HAL_TIM_IRQHandler>:
 80028ec:	6803      	ldr	r3, [r0, #0]
 80028ee:	b510      	push	{r4, lr}
 80028f0:	691a      	ldr	r2, [r3, #16]
 80028f2:	4604      	mov	r4, r0
 80028f4:	0791      	lsls	r1, r2, #30
 80028f6:	d50e      	bpl.n	8002916 <HAL_TIM_IRQHandler+0x2a>
 80028f8:	68da      	ldr	r2, [r3, #12]
 80028fa:	0792      	lsls	r2, r2, #30
 80028fc:	d50b      	bpl.n	8002916 <HAL_TIM_IRQHandler+0x2a>
 80028fe:	f06f 0202 	mvn.w	r2, #2
 8002902:	611a      	str	r2, [r3, #16]
 8002904:	2201      	movs	r2, #1
 8002906:	7702      	strb	r2, [r0, #28]
 8002908:	699b      	ldr	r3, [r3, #24]
 800290a:	079b      	lsls	r3, r3, #30
 800290c:	d077      	beq.n	80029fe <HAL_TIM_IRQHandler+0x112>
 800290e:	f7ff ffea 	bl	80028e6 <HAL_TIM_IC_CaptureCallback>
 8002912:	2300      	movs	r3, #0
 8002914:	7723      	strb	r3, [r4, #28]
 8002916:	6823      	ldr	r3, [r4, #0]
 8002918:	691a      	ldr	r2, [r3, #16]
 800291a:	0750      	lsls	r0, r2, #29
 800291c:	d510      	bpl.n	8002940 <HAL_TIM_IRQHandler+0x54>
 800291e:	68da      	ldr	r2, [r3, #12]
 8002920:	0751      	lsls	r1, r2, #29
 8002922:	d50d      	bpl.n	8002940 <HAL_TIM_IRQHandler+0x54>
 8002924:	f06f 0204 	mvn.w	r2, #4
 8002928:	611a      	str	r2, [r3, #16]
 800292a:	2202      	movs	r2, #2
 800292c:	7722      	strb	r2, [r4, #28]
 800292e:	699b      	ldr	r3, [r3, #24]
 8002930:	4620      	mov	r0, r4
 8002932:	f413 7f40 	tst.w	r3, #768	; 0x300
 8002936:	d068      	beq.n	8002a0a <HAL_TIM_IRQHandler+0x11e>
 8002938:	f7ff ffd5 	bl	80028e6 <HAL_TIM_IC_CaptureCallback>
 800293c:	2300      	movs	r3, #0
 800293e:	7723      	strb	r3, [r4, #28]
 8002940:	6823      	ldr	r3, [r4, #0]
 8002942:	691a      	ldr	r2, [r3, #16]
 8002944:	0712      	lsls	r2, r2, #28
 8002946:	d50f      	bpl.n	8002968 <HAL_TIM_IRQHandler+0x7c>
 8002948:	68da      	ldr	r2, [r3, #12]
 800294a:	0710      	lsls	r0, r2, #28
 800294c:	d50c      	bpl.n	8002968 <HAL_TIM_IRQHandler+0x7c>
 800294e:	f06f 0208 	mvn.w	r2, #8
 8002952:	611a      	str	r2, [r3, #16]
 8002954:	2204      	movs	r2, #4
 8002956:	7722      	strb	r2, [r4, #28]
 8002958:	69db      	ldr	r3, [r3, #28]
 800295a:	4620      	mov	r0, r4
 800295c:	0799      	lsls	r1, r3, #30
 800295e:	d05a      	beq.n	8002a16 <HAL_TIM_IRQHandler+0x12a>
 8002960:	f7ff ffc1 	bl	80028e6 <HAL_TIM_IC_CaptureCallback>
 8002964:	2300      	movs	r3, #0
 8002966:	7723      	strb	r3, [r4, #28]
 8002968:	6823      	ldr	r3, [r4, #0]
 800296a:	691a      	ldr	r2, [r3, #16]
 800296c:	06d2      	lsls	r2, r2, #27
 800296e:	d510      	bpl.n	8002992 <HAL_TIM_IRQHandler+0xa6>
 8002970:	68da      	ldr	r2, [r3, #12]
 8002972:	06d0      	lsls	r0, r2, #27
 8002974:	d50d      	bpl.n	8002992 <HAL_TIM_IRQHandler+0xa6>
 8002976:	f06f 0210 	mvn.w	r2, #16
 800297a:	611a      	str	r2, [r3, #16]
 800297c:	2208      	movs	r2, #8
 800297e:	7722      	strb	r2, [r4, #28]
 8002980:	69db      	ldr	r3, [r3, #28]
 8002982:	4620      	mov	r0, r4
 8002984:	f413 7f40 	tst.w	r3, #768	; 0x300
 8002988:	d04b      	beq.n	8002a22 <HAL_TIM_IRQHandler+0x136>
 800298a:	f7ff ffac 	bl	80028e6 <HAL_TIM_IC_CaptureCallback>
 800298e:	2300      	movs	r3, #0
 8002990:	7723      	strb	r3, [r4, #28]
 8002992:	6823      	ldr	r3, [r4, #0]
 8002994:	691a      	ldr	r2, [r3, #16]
 8002996:	07d1      	lsls	r1, r2, #31
 8002998:	d508      	bpl.n	80029ac <HAL_TIM_IRQHandler+0xc0>
 800299a:	68da      	ldr	r2, [r3, #12]
 800299c:	07d2      	lsls	r2, r2, #31
 800299e:	d505      	bpl.n	80029ac <HAL_TIM_IRQHandler+0xc0>
 80029a0:	f06f 0201 	mvn.w	r2, #1
 80029a4:	4620      	mov	r0, r4
 80029a6:	611a      	str	r2, [r3, #16]
 80029a8:	f7fe f92c 	bl	8000c04 <HAL_TIM_PeriodElapsedCallback>
 80029ac:	6823      	ldr	r3, [r4, #0]
 80029ae:	691a      	ldr	r2, [r3, #16]
 80029b0:	0610      	lsls	r0, r2, #24
 80029b2:	d508      	bpl.n	80029c6 <HAL_TIM_IRQHandler+0xda>
 80029b4:	68da      	ldr	r2, [r3, #12]
 80029b6:	0611      	lsls	r1, r2, #24
 80029b8:	d505      	bpl.n	80029c6 <HAL_TIM_IRQHandler+0xda>
 80029ba:	f06f 0280 	mvn.w	r2, #128	; 0x80
 80029be:	4620      	mov	r0, r4
 80029c0:	611a      	str	r2, [r3, #16]
 80029c2:	f000 f966 	bl	8002c92 <HAL_TIMEx_BreakCallback>
 80029c6:	6823      	ldr	r3, [r4, #0]
 80029c8:	691a      	ldr	r2, [r3, #16]
 80029ca:	0652      	lsls	r2, r2, #25
 80029cc:	d508      	bpl.n	80029e0 <HAL_TIM_IRQHandler+0xf4>
 80029ce:	68da      	ldr	r2, [r3, #12]
 80029d0:	0650      	lsls	r0, r2, #25
 80029d2:	d505      	bpl.n	80029e0 <HAL_TIM_IRQHandler+0xf4>
 80029d4:	f06f 0240 	mvn.w	r2, #64	; 0x40
 80029d8:	4620      	mov	r0, r4
 80029da:	611a      	str	r2, [r3, #16]
 80029dc:	f7ff ff85 	bl	80028ea <HAL_TIM_TriggerCallback>
 80029e0:	6823      	ldr	r3, [r4, #0]
 80029e2:	691a      	ldr	r2, [r3, #16]
 80029e4:	0691      	lsls	r1, r2, #26
 80029e6:	d522      	bpl.n	8002a2e <HAL_TIM_IRQHandler+0x142>
 80029e8:	68da      	ldr	r2, [r3, #12]
 80029ea:	0692      	lsls	r2, r2, #26
 80029ec:	d51f      	bpl.n	8002a2e <HAL_TIM_IRQHandler+0x142>
 80029ee:	f06f 0220 	mvn.w	r2, #32
 80029f2:	4620      	mov	r0, r4
 80029f4:	e8bd 4010 	ldmia.w	sp!, {r4, lr}
 80029f8:	611a      	str	r2, [r3, #16]
 80029fa:	f000 b949 	b.w	8002c90 <HAL_TIMEx_CommutCallback>
 80029fe:	f7ff ff71 	bl	80028e4 <HAL_TIM_OC_DelayElapsedCallback>
 8002a02:	4620      	mov	r0, r4
 8002a04:	f7ff ff70 	bl	80028e8 <HAL_TIM_PWM_PulseFinishedCallback>
 8002a08:	e783      	b.n	8002912 <HAL_TIM_IRQHandler+0x26>
 8002a0a:	f7ff ff6b 	bl	80028e4 <HAL_TIM_OC_DelayElapsedCallback>
 8002a0e:	4620      	mov	r0, r4
 8002a10:	f7ff ff6a 	bl	80028e8 <HAL_TIM_PWM_PulseFinishedCallback>
 8002a14:	e792      	b.n	800293c <HAL_TIM_IRQHandler+0x50>
 8002a16:	f7ff ff65 	bl	80028e4 <HAL_TIM_OC_DelayElapsedCallback>
 8002a1a:	4620      	mov	r0, r4
 8002a1c:	f7ff ff64 	bl	80028e8 <HAL_TIM_PWM_PulseFinishedCallback>
 8002a20:	e7a0      	b.n	8002964 <HAL_TIM_IRQHandler+0x78>
 8002a22:	f7ff ff5f 	bl	80028e4 <HAL_TIM_OC_DelayElapsedCallback>
 8002a26:	4620      	mov	r0, r4
 8002a28:	f7ff ff5e 	bl	80028e8 <HAL_TIM_PWM_PulseFinishedCallback>
 8002a2c:	e7af      	b.n	800298e <HAL_TIM_IRQHandler+0xa2>
 8002a2e:	bd10      	pop	{r4, pc}

08002a30 <TIM_Base_SetConfig>:
 8002a30:	4a1a      	ldr	r2, [pc, #104]	; (8002a9c <TIM_Base_SetConfig+0x6c>)
 8002a32:	6803      	ldr	r3, [r0, #0]
 8002a34:	4290      	cmp	r0, r2
 8002a36:	d00a      	beq.n	8002a4e <TIM_Base_SetConfig+0x1e>
 8002a38:	f1b0 4f80 	cmp.w	r0, #1073741824	; 0x40000000
 8002a3c:	d007      	beq.n	8002a4e <TIM_Base_SetConfig+0x1e>
 8002a3e:	f5a2 3294 	sub.w	r2, r2, #75776	; 0x12800
 8002a42:	4290      	cmp	r0, r2
 8002a44:	d003      	beq.n	8002a4e <TIM_Base_SetConfig+0x1e>
 8002a46:	f502 6280 	add.w	r2, r2, #1024	; 0x400
 8002a4a:	4290      	cmp	r0, r2
 8002a4c:	d115      	bne.n	8002a7a <TIM_Base_SetConfig+0x4a>
 8002a4e:	684a      	ldr	r2, [r1, #4]
 8002a50:	f023 0370 	bic.w	r3, r3, #112	; 0x70
 8002a54:	4313      	orrs	r3, r2
 8002a56:	4a11      	ldr	r2, [pc, #68]	; (8002a9c <TIM_Base_SetConfig+0x6c>)
 8002a58:	4290      	cmp	r0, r2
 8002a5a:	d00a      	beq.n	8002a72 <TIM_Base_SetConfig+0x42>
 8002a5c:	f1b0 4f80 	cmp.w	r0, #1073741824	; 0x40000000
 8002a60:	d007      	beq.n	8002a72 <TIM_Base_SetConfig+0x42>
 8002a62:	f5a2 3294 	sub.w	r2, r2, #75776	; 0x12800
 8002a66:	4290      	cmp	r0, r2
 8002a68:	d003      	beq.n	8002a72 <TIM_Base_SetConfig+0x42>
 8002a6a:	f502 6280 	add.w	r2, r2, #1024	; 0x400
 8002a6e:	4290      	cmp	r0, r2
 8002a70:	d103      	bne.n	8002a7a <TIM_Base_SetConfig+0x4a>
 8002a72:	68ca      	ldr	r2, [r1, #12]
 8002a74:	f423 7340 	bic.w	r3, r3, #768	; 0x300
 8002a78:	4313      	orrs	r3, r2
 8002a7a:	694a      	ldr	r2, [r1, #20]
 8002a7c:	f023 0380 	bic.w	r3, r3, #128	; 0x80
 8002a80:	4313      	orrs	r3, r2
 8002a82:	6003      	str	r3, [r0, #0]
 8002a84:	688b      	ldr	r3, [r1, #8]
 8002a86:	62c3      	str	r3, [r0, #44]	; 0x2c
 8002a88:	680b      	ldr	r3, [r1, #0]
 8002a8a:	6283      	str	r3, [r0, #40]	; 0x28
 8002a8c:	4b03      	ldr	r3, [pc, #12]	; (8002a9c <TIM_Base_SetConfig+0x6c>)
 8002a8e:	4298      	cmp	r0, r3
 8002a90:	bf04      	itt	eq
 8002a92:	690b      	ldreq	r3, [r1, #16]
 8002a94:	6303      	streq	r3, [r0, #48]	; 0x30
 8002a96:	2301      	movs	r3, #1
 8002a98:	6143      	str	r3, [r0, #20]
 8002a9a:	4770      	bx	lr
 8002a9c:	40012c00 	.word	0x40012c00

08002aa0 <HAL_TIM_Base_Init>:
 8002aa0:	b510      	push	{r4, lr}
 8002aa2:	4604      	mov	r4, r0
 8002aa4:	b330      	cbz	r0, 8002af4 <HAL_TIM_Base_Init+0x54>
 8002aa6:	f890 303d 	ldrb.w	r3, [r0, #61]	; 0x3d
 8002aaa:	f003 02ff 	and.w	r2, r3, #255	; 0xff
 8002aae:	b91b      	cbnz	r3, 8002ab8 <HAL_TIM_Base_Init+0x18>
 8002ab0:	f880 203c 	strb.w	r2, [r0, #60]	; 0x3c
 8002ab4:	f7fe fd88 	bl	80015c8 <HAL_TIM_Base_MspInit>
 8002ab8:	2302      	movs	r3, #2
 8002aba:	6820      	ldr	r0, [r4, #0]
 8002abc:	f884 303d 	strb.w	r3, [r4, #61]	; 0x3d
 8002ac0:	1d21      	adds	r1, r4, #4
 8002ac2:	f7ff ffb5 	bl	8002a30 <TIM_Base_SetConfig>
 8002ac6:	2301      	movs	r3, #1
 8002ac8:	2000      	movs	r0, #0
 8002aca:	f884 3046 	strb.w	r3, [r4, #70]	; 0x46
 8002ace:	f884 303e 	strb.w	r3, [r4, #62]	; 0x3e
 8002ad2:	f884 303f 	strb.w	r3, [r4, #63]	; 0x3f
 8002ad6:	f884 3040 	strb.w	r3, [r4, #64]	; 0x40
 8002ada:	f884 3041 	strb.w	r3, [r4, #65]	; 0x41
 8002ade:	f884 3042 	strb.w	r3, [r4, #66]	; 0x42
 8002ae2:	f884 3043 	strb.w	r3, [r4, #67]	; 0x43
 8002ae6:	f884 3044 	strb.w	r3, [r4, #68]	; 0x44
 8002aea:	f884 3045 	strb.w	r3, [r4, #69]	; 0x45
 8002aee:	f884 303d 	strb.w	r3, [r4, #61]	; 0x3d
 8002af2:	bd10      	pop	{r4, pc}
 8002af4:	2001      	movs	r0, #1
 8002af6:	e7fc      	b.n	8002af2 <HAL_TIM_Base_Init+0x52>

08002af8 <TIM_ETR_SetConfig>:
 8002af8:	b510      	push	{r4, lr}
 8002afa:	6884      	ldr	r4, [r0, #8]
 8002afc:	430a      	orrs	r2, r1
 8002afe:	f424 447f 	bic.w	r4, r4, #65280	; 0xff00
 8002b02:	ea42 2203 	orr.w	r2, r2, r3, lsl #8
 8002b06:	4322      	orrs	r2, r4
 8002b08:	6082      	str	r2, [r0, #8]
 8002b0a:	bd10      	pop	{r4, pc}

08002b0c <HAL_TIM_ConfigClockSource>:
 8002b0c:	b570      	push	{r4, r5, r6, lr}
 8002b0e:	f890 303c 	ldrb.w	r3, [r0, #60]	; 0x3c
 8002b12:	4604      	mov	r4, r0
 8002b14:	2b01      	cmp	r3, #1
 8002b16:	f04f 0002 	mov.w	r0, #2
 8002b1a:	d027      	beq.n	8002b6c <HAL_TIM_ConfigClockSource+0x60>
 8002b1c:	2301      	movs	r3, #1
 8002b1e:	f884 003d 	strb.w	r0, [r4, #61]	; 0x3d
 8002b22:	6820      	ldr	r0, [r4, #0]
 8002b24:	f884 303c 	strb.w	r3, [r4, #60]	; 0x3c
 8002b28:	6883      	ldr	r3, [r0, #8]
 8002b2a:	f423 437f 	bic.w	r3, r3, #65280	; 0xff00
 8002b2e:	f023 0377 	bic.w	r3, r3, #119	; 0x77
 8002b32:	6083      	str	r3, [r0, #8]
 8002b34:	680b      	ldr	r3, [r1, #0]
 8002b36:	2b60      	cmp	r3, #96	; 0x60
 8002b38:	d04d      	beq.n	8002bd6 <HAL_TIM_ConfigClockSource+0xca>
 8002b3a:	d832      	bhi.n	8002ba2 <HAL_TIM_ConfigClockSource+0x96>
 8002b3c:	2b40      	cmp	r3, #64	; 0x40
 8002b3e:	d062      	beq.n	8002c06 <HAL_TIM_ConfigClockSource+0xfa>
 8002b40:	d815      	bhi.n	8002b6e <HAL_TIM_ConfigClockSource+0x62>
 8002b42:	2b20      	cmp	r3, #32
 8002b44:	d003      	beq.n	8002b4e <HAL_TIM_ConfigClockSource+0x42>
 8002b46:	d809      	bhi.n	8002b5c <HAL_TIM_ConfigClockSource+0x50>
 8002b48:	f033 0210 	bics.w	r2, r3, #16
 8002b4c:	d108      	bne.n	8002b60 <HAL_TIM_ConfigClockSource+0x54>
 8002b4e:	6882      	ldr	r2, [r0, #8]
 8002b50:	f022 0270 	bic.w	r2, r2, #112	; 0x70
 8002b54:	4313      	orrs	r3, r2
 8002b56:	f043 0307 	orr.w	r3, r3, #7
 8002b5a:	e020      	b.n	8002b9e <HAL_TIM_ConfigClockSource+0x92>
 8002b5c:	2b30      	cmp	r3, #48	; 0x30
 8002b5e:	d0f6      	beq.n	8002b4e <HAL_TIM_ConfigClockSource+0x42>
 8002b60:	2301      	movs	r3, #1
 8002b62:	2000      	movs	r0, #0
 8002b64:	f884 303d 	strb.w	r3, [r4, #61]	; 0x3d
 8002b68:	f884 003c 	strb.w	r0, [r4, #60]	; 0x3c
 8002b6c:	bd70      	pop	{r4, r5, r6, pc}
 8002b6e:	2b50      	cmp	r3, #80	; 0x50
 8002b70:	d1f6      	bne.n	8002b60 <HAL_TIM_ConfigClockSource+0x54>
 8002b72:	684a      	ldr	r2, [r1, #4]
 8002b74:	68ce      	ldr	r6, [r1, #12]
 8002b76:	6a01      	ldr	r1, [r0, #32]
 8002b78:	6a05      	ldr	r5, [r0, #32]
 8002b7a:	f021 010a 	bic.w	r1, r1, #10
 8002b7e:	f025 0501 	bic.w	r5, r5, #1
 8002b82:	6205      	str	r5, [r0, #32]
 8002b84:	6983      	ldr	r3, [r0, #24]
 8002b86:	430a      	orrs	r2, r1
 8002b88:	f023 03f0 	bic.w	r3, r3, #240	; 0xf0
 8002b8c:	ea43 1306 	orr.w	r3, r3, r6, lsl #4
 8002b90:	6183      	str	r3, [r0, #24]
 8002b92:	6202      	str	r2, [r0, #32]
 8002b94:	6883      	ldr	r3, [r0, #8]
 8002b96:	f023 0370 	bic.w	r3, r3, #112	; 0x70
 8002b9a:	f043 0357 	orr.w	r3, r3, #87	; 0x57
 8002b9e:	6083      	str	r3, [r0, #8]
 8002ba0:	e7de      	b.n	8002b60 <HAL_TIM_ConfigClockSource+0x54>
 8002ba2:	2b70      	cmp	r3, #112	; 0x70
 8002ba4:	d00c      	beq.n	8002bc0 <HAL_TIM_ConfigClockSource+0xb4>
 8002ba6:	f5b3 5f00 	cmp.w	r3, #8192	; 0x2000
 8002baa:	d1d9      	bne.n	8002b60 <HAL_TIM_ConfigClockSource+0x54>
 8002bac:	68cb      	ldr	r3, [r1, #12]
 8002bae:	e9d1 2101 	ldrd	r2, r1, [r1, #4]
 8002bb2:	f7ff ffa1 	bl	8002af8 <TIM_ETR_SetConfig>
 8002bb6:	6822      	ldr	r2, [r4, #0]
 8002bb8:	6893      	ldr	r3, [r2, #8]
 8002bba:	f443 4380 	orr.w	r3, r3, #16384	; 0x4000
 8002bbe:	e008      	b.n	8002bd2 <HAL_TIM_ConfigClockSource+0xc6>
 8002bc0:	68cb      	ldr	r3, [r1, #12]
 8002bc2:	e9d1 2101 	ldrd	r2, r1, [r1, #4]
 8002bc6:	f7ff ff97 	bl	8002af8 <TIM_ETR_SetConfig>
 8002bca:	6822      	ldr	r2, [r4, #0]
 8002bcc:	6893      	ldr	r3, [r2, #8]
 8002bce:	f043 0377 	orr.w	r3, r3, #119	; 0x77
 8002bd2:	6093      	str	r3, [r2, #8]
 8002bd4:	e7c4      	b.n	8002b60 <HAL_TIM_ConfigClockSource+0x54>
 8002bd6:	684d      	ldr	r5, [r1, #4]
 8002bd8:	68ce      	ldr	r6, [r1, #12]
 8002bda:	6a01      	ldr	r1, [r0, #32]
 8002bdc:	f021 0110 	bic.w	r1, r1, #16
 8002be0:	6201      	str	r1, [r0, #32]
 8002be2:	6982      	ldr	r2, [r0, #24]
 8002be4:	6a03      	ldr	r3, [r0, #32]
 8002be6:	f422 4270 	bic.w	r2, r2, #61440	; 0xf000
 8002bea:	f023 03a0 	bic.w	r3, r3, #160	; 0xa0
 8002bee:	ea43 1305 	orr.w	r3, r3, r5, lsl #4
 8002bf2:	ea42 3206 	orr.w	r2, r2, r6, lsl #12
 8002bf6:	6182      	str	r2, [r0, #24]
 8002bf8:	6203      	str	r3, [r0, #32]
 8002bfa:	6883      	ldr	r3, [r0, #8]
 8002bfc:	f023 0370 	bic.w	r3, r3, #112	; 0x70
 8002c00:	f043 0367 	orr.w	r3, r3, #103	; 0x67
 8002c04:	e7cb      	b.n	8002b9e <HAL_TIM_ConfigClockSource+0x92>
 8002c06:	684a      	ldr	r2, [r1, #4]
 8002c08:	68ce      	ldr	r6, [r1, #12]
 8002c0a:	6a01      	ldr	r1, [r0, #32]
 8002c0c:	6a05      	ldr	r5, [r0, #32]
 8002c0e:	f021 010a 	bic.w	r1, r1, #10
 8002c12:	f025 0501 	bic.w	r5, r5, #1
 8002c16:	6205      	str	r5, [r0, #32]
 8002c18:	6983      	ldr	r3, [r0, #24]
 8002c1a:	430a      	orrs	r2, r1
 8002c1c:	f023 03f0 	bic.w	r3, r3, #240	; 0xf0
 8002c20:	ea43 1306 	orr.w	r3, r3, r6, lsl #4
 8002c24:	6183      	str	r3, [r0, #24]
 8002c26:	6202      	str	r2, [r0, #32]
 8002c28:	6883      	ldr	r3, [r0, #8]
 8002c2a:	f023 0370 	bic.w	r3, r3, #112	; 0x70
 8002c2e:	f043 0347 	orr.w	r3, r3, #71	; 0x47
 8002c32:	e7b4      	b.n	8002b9e <HAL_TIM_ConfigClockSource+0x92>

08002c34 <HAL_TIMEx_MasterConfigSynchronization>:
 8002c34:	b530      	push	{r4, r5, lr}
 8002c36:	f890 303c 	ldrb.w	r3, [r0, #60]	; 0x3c
 8002c3a:	4602      	mov	r2, r0
 8002c3c:	2b01      	cmp	r3, #1
 8002c3e:	f04f 0002 	mov.w	r0, #2
 8002c42:	d022      	beq.n	8002c8a <HAL_TIMEx_MasterConfigSynchronization+0x56>
 8002c44:	6813      	ldr	r3, [r2, #0]
 8002c46:	f882 003d 	strb.w	r0, [r2, #61]	; 0x3d
 8002c4a:	685c      	ldr	r4, [r3, #4]
 8002c4c:	680d      	ldr	r5, [r1, #0]
 8002c4e:	f024 0470 	bic.w	r4, r4, #112	; 0x70
 8002c52:	432c      	orrs	r4, r5
 8002c54:	6898      	ldr	r0, [r3, #8]
 8002c56:	605c      	str	r4, [r3, #4]
 8002c58:	4c0c      	ldr	r4, [pc, #48]	; (8002c8c <HAL_TIMEx_MasterConfigSynchronization+0x58>)
 8002c5a:	42a3      	cmp	r3, r4
 8002c5c:	d00a      	beq.n	8002c74 <HAL_TIMEx_MasterConfigSynchronization+0x40>
 8002c5e:	f1b3 4f80 	cmp.w	r3, #1073741824	; 0x40000000
 8002c62:	d007      	beq.n	8002c74 <HAL_TIMEx_MasterConfigSynchronization+0x40>
 8002c64:	f5a4 3494 	sub.w	r4, r4, #75776	; 0x12800
 8002c68:	42a3      	cmp	r3, r4
 8002c6a:	d003      	beq.n	8002c74 <HAL_TIMEx_MasterConfigSynchronization+0x40>
 8002c6c:	f504 6480 	add.w	r4, r4, #1024	; 0x400
 8002c70:	42a3      	cmp	r3, r4
 8002c72:	d104      	bne.n	8002c7e <HAL_TIMEx_MasterConfigSynchronization+0x4a>
 8002c74:	6849      	ldr	r1, [r1, #4]
 8002c76:	f020 0080 	bic.w	r0, r0, #128	; 0x80
 8002c7a:	4301      	orrs	r1, r0
 8002c7c:	6099      	str	r1, [r3, #8]
 8002c7e:	2301      	movs	r3, #1
 8002c80:	2000      	movs	r0, #0
 8002c82:	f882 303d 	strb.w	r3, [r2, #61]	; 0x3d
 8002c86:	f882 003c 	strb.w	r0, [r2, #60]	; 0x3c
 8002c8a:	bd30      	pop	{r4, r5, pc}
 8002c8c:	40012c00 	.word	0x40012c00

08002c90 <HAL_TIMEx_CommutCallback>:
 8002c90:	4770      	bx	lr

08002c92 <HAL_TIMEx_BreakCallback>:
 8002c92:	4770      	bx	lr

08002c94 <UART_SetConfig>:
 8002c94:	b510      	push	{r4, lr}
 8002c96:	4604      	mov	r4, r0
 8002c98:	6803      	ldr	r3, [r0, #0]
 8002c9a:	68c1      	ldr	r1, [r0, #12]
 8002c9c:	691a      	ldr	r2, [r3, #16]
 8002c9e:	f422 5240 	bic.w	r2, r2, #12288	; 0x3000
 8002ca2:	430a      	orrs	r2, r1
 8002ca4:	611a      	str	r2, [r3, #16]
 8002ca6:	6882      	ldr	r2, [r0, #8]
 8002ca8:	6900      	ldr	r0, [r0, #16]
 8002caa:	68d9      	ldr	r1, [r3, #12]
 8002cac:	4302      	orrs	r2, r0
 8002cae:	6960      	ldr	r0, [r4, #20]
 8002cb0:	f421 51b0 	bic.w	r1, r1, #5632	; 0x1600
 8002cb4:	f021 010c 	bic.w	r1, r1, #12
 8002cb8:	4302      	orrs	r2, r0
 8002cba:	430a      	orrs	r2, r1
 8002cbc:	60da      	str	r2, [r3, #12]
 8002cbe:	695a      	ldr	r2, [r3, #20]
 8002cc0:	69a1      	ldr	r1, [r4, #24]
 8002cc2:	f422 7240 	bic.w	r2, r2, #768	; 0x300
 8002cc6:	430a      	orrs	r2, r1
 8002cc8:	615a      	str	r2, [r3, #20]
 8002cca:	4a0e      	ldr	r2, [pc, #56]	; (8002d04 <UART_SetConfig+0x70>)
 8002ccc:	4293      	cmp	r3, r2
 8002cce:	d115      	bne.n	8002cfc <UART_SetConfig+0x68>
 8002cd0:	f7ff f9a8 	bl	8002024 <HAL_RCC_GetPCLK2Freq>
 8002cd4:	2319      	movs	r3, #25
 8002cd6:	4343      	muls	r3, r0
 8002cd8:	6862      	ldr	r2, [r4, #4]
 8002cda:	6820      	ldr	r0, [r4, #0]
 8002cdc:	0092      	lsls	r2, r2, #2
 8002cde:	fbb3 f3f2 	udiv	r3, r3, r2
 8002ce2:	2264      	movs	r2, #100	; 0x64
 8002ce4:	fbb3 f1f2 	udiv	r1, r3, r2
 8002ce8:	fb02 3311 	mls	r3, r2, r1, r3
 8002cec:	011b      	lsls	r3, r3, #4
 8002cee:	3332      	adds	r3, #50	; 0x32
 8002cf0:	fbb3 f3f2 	udiv	r3, r3, r2
 8002cf4:	eb03 1301 	add.w	r3, r3, r1, lsl #4
 8002cf8:	6083      	str	r3, [r0, #8]
 8002cfa:	bd10      	pop	{r4, pc}
 8002cfc:	f7ff f982 	bl	8002004 <HAL_RCC_GetPCLK1Freq>
 8002d00:	e7e8      	b.n	8002cd4 <UART_SetConfig+0x40>
 8002d02:	bf00      	nop
 8002d04:	40013800 	.word	0x40013800

08002d08 <UART_WaitOnFlagUntilTimeout.constprop.0>:
 8002d08:	b5f8      	push	{r3, r4, r5, r6, r7, lr}
 8002d0a:	4604      	mov	r4, r0
 8002d0c:	460e      	mov	r6, r1
 8002d0e:	4617      	mov	r7, r2
 8002d10:	461d      	mov	r5, r3
 8002d12:	6822      	ldr	r2, [r4, #0]
 8002d14:	6813      	ldr	r3, [r2, #0]
 8002d16:	ea36 0303 	bics.w	r3, r6, r3
 8002d1a:	d101      	bne.n	8002d20 <UART_WaitOnFlagUntilTimeout.constprop.0+0x18>
 8002d1c:	2000      	movs	r0, #0
 8002d1e:	e014      	b.n	8002d4a <UART_WaitOnFlagUntilTimeout.constprop.0+0x42>
 8002d20:	1c6b      	adds	r3, r5, #1
 8002d22:	d0f7      	beq.n	8002d14 <UART_WaitOnFlagUntilTimeout.constprop.0+0xc>
 8002d24:	b995      	cbnz	r5, 8002d4c <UART_WaitOnFlagUntilTimeout.constprop.0+0x44>
 8002d26:	6823      	ldr	r3, [r4, #0]
 8002d28:	2003      	movs	r0, #3
 8002d2a:	68da      	ldr	r2, [r3, #12]
 8002d2c:	f422 72d0 	bic.w	r2, r2, #416	; 0x1a0
 8002d30:	60da      	str	r2, [r3, #12]
 8002d32:	695a      	ldr	r2, [r3, #20]
 8002d34:	f022 0201 	bic.w	r2, r2, #1
 8002d38:	615a      	str	r2, [r3, #20]
 8002d3a:	2320      	movs	r3, #32
 8002d3c:	f884 303d 	strb.w	r3, [r4, #61]	; 0x3d
 8002d40:	f884 303e 	strb.w	r3, [r4, #62]	; 0x3e
 8002d44:	2300      	movs	r3, #0
 8002d46:	f884 303c 	strb.w	r3, [r4, #60]	; 0x3c
 8002d4a:	bdf8      	pop	{r3, r4, r5, r6, r7, pc}
 8002d4c:	f7fe fd66 	bl	800181c <HAL_GetTick>
 8002d50:	1bc0      	subs	r0, r0, r7
 8002d52:	4285      	cmp	r5, r0
 8002d54:	d2dd      	bcs.n	8002d12 <UART_WaitOnFlagUntilTimeout.constprop.0+0xa>
 8002d56:	e7e6      	b.n	8002d26 <UART_WaitOnFlagUntilTimeout.constprop.0+0x1e>

08002d58 <HAL_UART_Init>:
 8002d58:	b510      	push	{r4, lr}
 8002d5a:	4604      	mov	r4, r0
 8002d5c:	b340      	cbz	r0, 8002db0 <HAL_UART_Init+0x58>
 8002d5e:	f890 303d 	ldrb.w	r3, [r0, #61]	; 0x3d
 8002d62:	f003 02ff 	and.w	r2, r3, #255	; 0xff
 8002d66:	b91b      	cbnz	r3, 8002d70 <HAL_UART_Init+0x18>
 8002d68:	f880 203c 	strb.w	r2, [r0, #60]	; 0x3c
 8002d6c:	f7fe fc82 	bl	8001674 <HAL_UART_MspInit>
 8002d70:	2324      	movs	r3, #36	; 0x24
 8002d72:	6822      	ldr	r2, [r4, #0]
 8002d74:	f884 303d 	strb.w	r3, [r4, #61]	; 0x3d
 8002d78:	68d3      	ldr	r3, [r2, #12]
 8002d7a:	4620      	mov	r0, r4
 8002d7c:	f423 5300 	bic.w	r3, r3, #8192	; 0x2000
 8002d80:	60d3      	str	r3, [r2, #12]
 8002d82:	f7ff ff87 	bl	8002c94 <UART_SetConfig>
 8002d86:	6823      	ldr	r3, [r4, #0]
 8002d88:	2000      	movs	r0, #0
 8002d8a:	691a      	ldr	r2, [r3, #16]
 8002d8c:	f422 4290 	bic.w	r2, r2, #18432	; 0x4800
 8002d90:	611a      	str	r2, [r3, #16]
 8002d92:	695a      	ldr	r2, [r3, #20]
 8002d94:	f022 022a 	bic.w	r2, r2, #42	; 0x2a
 8002d98:	615a      	str	r2, [r3, #20]
 8002d9a:	68da      	ldr	r2, [r3, #12]
 8002d9c:	f442 5200 	orr.w	r2, r2, #8192	; 0x2000
 8002da0:	60da      	str	r2, [r3, #12]
 8002da2:	2320      	movs	r3, #32
 8002da4:	6420      	str	r0, [r4, #64]	; 0x40
 8002da6:	f884 303d 	strb.w	r3, [r4, #61]	; 0x3d
 8002daa:	f884 303e 	strb.w	r3, [r4, #62]	; 0x3e
 8002dae:	bd10      	pop	{r4, pc}
 8002db0:	2001      	movs	r0, #1
 8002db2:	e7fc      	b.n	8002dae <HAL_UART_Init+0x56>

08002db4 <HAL_UART_Transmit>:
 8002db4:	e92d 43f8 	stmdb	sp!, {r3, r4, r5, r6, r7, r8, r9, lr}
 8002db8:	4699      	mov	r9, r3
 8002dba:	f890 303d 	ldrb.w	r3, [r0, #61]	; 0x3d
 8002dbe:	4604      	mov	r4, r0
 8002dc0:	2b20      	cmp	r3, #32
 8002dc2:	460e      	mov	r6, r1
 8002dc4:	4617      	mov	r7, r2
 8002dc6:	d148      	bne.n	8002e5a <HAL_UART_Transmit+0xa6>
 8002dc8:	2900      	cmp	r1, #0
 8002dca:	d044      	beq.n	8002e56 <HAL_UART_Transmit+0xa2>
 8002dcc:	2a00      	cmp	r2, #0
 8002dce:	d042      	beq.n	8002e56 <HAL_UART_Transmit+0xa2>
 8002dd0:	f890 303c 	ldrb.w	r3, [r0, #60]	; 0x3c
 8002dd4:	2b01      	cmp	r3, #1
 8002dd6:	d040      	beq.n	8002e5a <HAL_UART_Transmit+0xa6>
 8002dd8:	2301      	movs	r3, #1
 8002dda:	2500      	movs	r5, #0
 8002ddc:	f880 303c 	strb.w	r3, [r0, #60]	; 0x3c
 8002de0:	2321      	movs	r3, #33	; 0x21
 8002de2:	6405      	str	r5, [r0, #64]	; 0x40
 8002de4:	f880 303d 	strb.w	r3, [r0, #61]	; 0x3d
 8002de8:	f7fe fd18 	bl	800181c <HAL_GetTick>
 8002dec:	68a3      	ldr	r3, [r4, #8]
 8002dee:	4680      	mov	r8, r0
 8002df0:	f5b3 5f80 	cmp.w	r3, #4096	; 0x1000
 8002df4:	84a7      	strh	r7, [r4, #36]	; 0x24
 8002df6:	84e7      	strh	r7, [r4, #38]	; 0x26
 8002df8:	d103      	bne.n	8002e02 <HAL_UART_Transmit+0x4e>
 8002dfa:	6923      	ldr	r3, [r4, #16]
 8002dfc:	b90b      	cbnz	r3, 8002e02 <HAL_UART_Transmit+0x4e>
 8002dfe:	4635      	mov	r5, r6
 8002e00:	461e      	mov	r6, r3
 8002e02:	2300      	movs	r3, #0
 8002e04:	f884 303c 	strb.w	r3, [r4, #60]	; 0x3c
 8002e08:	8ce3      	ldrh	r3, [r4, #38]	; 0x26
 8002e0a:	b29b      	uxth	r3, r3
 8002e0c:	b953      	cbnz	r3, 8002e24 <HAL_UART_Transmit+0x70>
 8002e0e:	464b      	mov	r3, r9
 8002e10:	4642      	mov	r2, r8
 8002e12:	2140      	movs	r1, #64	; 0x40
 8002e14:	4620      	mov	r0, r4
 8002e16:	f7ff ff77 	bl	8002d08 <UART_WaitOnFlagUntilTimeout.constprop.0>
 8002e1a:	b950      	cbnz	r0, 8002e32 <HAL_UART_Transmit+0x7e>
 8002e1c:	2320      	movs	r3, #32
 8002e1e:	f884 303d 	strb.w	r3, [r4, #61]	; 0x3d
 8002e22:	e007      	b.n	8002e34 <HAL_UART_Transmit+0x80>
 8002e24:	464b      	mov	r3, r9
 8002e26:	4642      	mov	r2, r8
 8002e28:	2180      	movs	r1, #128	; 0x80
 8002e2a:	4620      	mov	r0, r4
 8002e2c:	f7ff ff6c 	bl	8002d08 <UART_WaitOnFlagUntilTimeout.constprop.0>
 8002e30:	b110      	cbz	r0, 8002e38 <HAL_UART_Transmit+0x84>
 8002e32:	2003      	movs	r0, #3
 8002e34:	e8bd 83f8 	ldmia.w	sp!, {r3, r4, r5, r6, r7, r8, r9, pc}
 8002e38:	6822      	ldr	r2, [r4, #0]
 8002e3a:	b94e      	cbnz	r6, 8002e50 <HAL_UART_Transmit+0x9c>
 8002e3c:	f835 3b02 	ldrh.w	r3, [r5], #2
 8002e40:	f3c3 0308 	ubfx	r3, r3, #0, #9
 8002e44:	6053      	str	r3, [r2, #4]
 8002e46:	8ce1      	ldrh	r1, [r4, #38]	; 0x26
 8002e48:	3901      	subs	r1, #1
 8002e4a:	b289      	uxth	r1, r1
 8002e4c:	84e1      	strh	r1, [r4, #38]	; 0x26
 8002e4e:	e7db      	b.n	8002e08 <HAL_UART_Transmit+0x54>
 8002e50:	f816 3b01 	ldrb.w	r3, [r6], #1
 8002e54:	e7f6      	b.n	8002e44 <HAL_UART_Transmit+0x90>
 8002e56:	2001      	movs	r0, #1
 8002e58:	e7ec      	b.n	8002e34 <HAL_UART_Transmit+0x80>
 8002e5a:	2002      	movs	r0, #2
 8002e5c:	e7ea      	b.n	8002e34 <HAL_UART_Transmit+0x80>
	...

08002e60 <__errno>:
 8002e60:	4b01      	ldr	r3, [pc, #4]	; (8002e68 <__errno+0x8>)
 8002e62:	6818      	ldr	r0, [r3, #0]
 8002e64:	4770      	bx	lr
 8002e66:	bf00      	nop
 8002e68:	2000001c 	.word	0x2000001c

08002e6c <__libc_init_array>:
 8002e6c:	b570      	push	{r4, r5, r6, lr}
 8002e6e:	2600      	movs	r6, #0
 8002e70:	4d0c      	ldr	r5, [pc, #48]	; (8002ea4 <__libc_init_array+0x38>)
 8002e72:	4c0d      	ldr	r4, [pc, #52]	; (8002ea8 <__libc_init_array+0x3c>)
 8002e74:	1b64      	subs	r4, r4, r5
 8002e76:	10a4      	asrs	r4, r4, #2
 8002e78:	42a6      	cmp	r6, r4
 8002e7a:	d109      	bne.n	8002e90 <__libc_init_array+0x24>
 8002e7c:	f000 fc64 	bl	8003748 <_init>
 8002e80:	2600      	movs	r6, #0
 8002e82:	4d0a      	ldr	r5, [pc, #40]	; (8002eac <__libc_init_array+0x40>)
 8002e84:	4c0a      	ldr	r4, [pc, #40]	; (8002eb0 <__libc_init_array+0x44>)
 8002e86:	1b64      	subs	r4, r4, r5
 8002e88:	10a4      	asrs	r4, r4, #2
 8002e8a:	42a6      	cmp	r6, r4
 8002e8c:	d105      	bne.n	8002e9a <__libc_init_array+0x2e>
 8002e8e:	bd70      	pop	{r4, r5, r6, pc}
 8002e90:	f855 3b04 	ldr.w	r3, [r5], #4
 8002e94:	4798      	blx	r3
 8002e96:	3601      	adds	r6, #1
 8002e98:	e7ee      	b.n	8002e78 <__libc_init_array+0xc>
 8002e9a:	f855 3b04 	ldr.w	r3, [r5], #4
 8002e9e:	4798      	blx	r3
 8002ea0:	3601      	adds	r6, #1
 8002ea2:	e7f2      	b.n	8002e8a <__libc_init_array+0x1e>
 8002ea4:	08003a54 	.word	0x08003a54
 8002ea8:	08003a54 	.word	0x08003a54
 8002eac:	08003a54 	.word	0x08003a54
 8002eb0:	08003a58 	.word	0x08003a58

08002eb4 <memset>:
 8002eb4:	4603      	mov	r3, r0
 8002eb6:	4402      	add	r2, r0
 8002eb8:	4293      	cmp	r3, r2
 8002eba:	d100      	bne.n	8002ebe <memset+0xa>
 8002ebc:	4770      	bx	lr
 8002ebe:	f803 1b01 	strb.w	r1, [r3], #1
 8002ec2:	e7f9      	b.n	8002eb8 <memset+0x4>

08002ec4 <siprintf>:
 8002ec4:	b40e      	push	{r1, r2, r3}
 8002ec6:	f06f 4100 	mvn.w	r1, #2147483648	; 0x80000000
 8002eca:	b500      	push	{lr}
 8002ecc:	b09c      	sub	sp, #112	; 0x70
 8002ece:	ab1d      	add	r3, sp, #116	; 0x74
 8002ed0:	9002      	str	r0, [sp, #8]
 8002ed2:	9006      	str	r0, [sp, #24]
 8002ed4:	9107      	str	r1, [sp, #28]
 8002ed6:	9104      	str	r1, [sp, #16]
 8002ed8:	4808      	ldr	r0, [pc, #32]	; (8002efc <siprintf+0x38>)
 8002eda:	4909      	ldr	r1, [pc, #36]	; (8002f00 <siprintf+0x3c>)
 8002edc:	f853 2b04 	ldr.w	r2, [r3], #4
 8002ee0:	9105      	str	r1, [sp, #20]
 8002ee2:	6800      	ldr	r0, [r0, #0]
 8002ee4:	a902      	add	r1, sp, #8
 8002ee6:	9301      	str	r3, [sp, #4]
 8002ee8:	f000 f870 	bl	8002fcc <_svfiprintf_r>
 8002eec:	2200      	movs	r2, #0
 8002eee:	9b02      	ldr	r3, [sp, #8]
 8002ef0:	701a      	strb	r2, [r3, #0]
 8002ef2:	b01c      	add	sp, #112	; 0x70
 8002ef4:	f85d eb04 	ldr.w	lr, [sp], #4
 8002ef8:	b003      	add	sp, #12
 8002efa:	4770      	bx	lr
 8002efc:	2000001c 	.word	0x2000001c
 8002f00:	ffff0208 	.word	0xffff0208

08002f04 <strcpy>:
 8002f04:	4603      	mov	r3, r0
 8002f06:	f811 2b01 	ldrb.w	r2, [r1], #1
 8002f0a:	f803 2b01 	strb.w	r2, [r3], #1
 8002f0e:	2a00      	cmp	r2, #0
 8002f10:	d1f9      	bne.n	8002f06 <strcpy+0x2>
 8002f12:	4770      	bx	lr

08002f14 <__ssputs_r>:
 8002f14:	e92d 47f0 	stmdb	sp!, {r4, r5, r6, r7, r8, r9, sl, lr}
 8002f18:	688e      	ldr	r6, [r1, #8]
 8002f1a:	4682      	mov	sl, r0
 8002f1c:	429e      	cmp	r6, r3
 8002f1e:	460c      	mov	r4, r1
 8002f20:	4690      	mov	r8, r2
 8002f22:	461f      	mov	r7, r3
 8002f24:	d838      	bhi.n	8002f98 <__ssputs_r+0x84>
 8002f26:	898a      	ldrh	r2, [r1, #12]
 8002f28:	f412 6f90 	tst.w	r2, #1152	; 0x480
 8002f2c:	d032      	beq.n	8002f94 <__ssputs_r+0x80>
 8002f2e:	6825      	ldr	r5, [r4, #0]
 8002f30:	6909      	ldr	r1, [r1, #16]
 8002f32:	3301      	adds	r3, #1
 8002f34:	eba5 0901 	sub.w	r9, r5, r1
 8002f38:	6965      	ldr	r5, [r4, #20]
 8002f3a:	444b      	add	r3, r9
 8002f3c:	eb05 0545 	add.w	r5, r5, r5, lsl #1
 8002f40:	eb05 75d5 	add.w	r5, r5, r5, lsr #31
 8002f44:	106d      	asrs	r5, r5, #1
 8002f46:	429d      	cmp	r5, r3
 8002f48:	bf38      	it	cc
 8002f4a:	461d      	movcc	r5, r3
 8002f4c:	0553      	lsls	r3, r2, #21
 8002f4e:	d531      	bpl.n	8002fb4 <__ssputs_r+0xa0>
 8002f50:	4629      	mov	r1, r5
 8002f52:	f000 fb53 	bl	80035fc <_malloc_r>
 8002f56:	4606      	mov	r6, r0
 8002f58:	b950      	cbnz	r0, 8002f70 <__ssputs_r+0x5c>
 8002f5a:	230c      	movs	r3, #12
 8002f5c:	f04f 30ff 	mov.w	r0, #4294967295	; 0xffffffff
 8002f60:	f8ca 3000 	str.w	r3, [sl]
 8002f64:	89a3      	ldrh	r3, [r4, #12]
 8002f66:	f043 0340 	orr.w	r3, r3, #64	; 0x40
 8002f6a:	81a3      	strh	r3, [r4, #12]
 8002f6c:	e8bd 87f0 	ldmia.w	sp!, {r4, r5, r6, r7, r8, r9, sl, pc}
 8002f70:	464a      	mov	r2, r9
 8002f72:	6921      	ldr	r1, [r4, #16]
 8002f74:	f000 face 	bl	8003514 <memcpy>
 8002f78:	89a3      	ldrh	r3, [r4, #12]
 8002f7a:	f423 6390 	bic.w	r3, r3, #1152	; 0x480
 8002f7e:	f043 0380 	orr.w	r3, r3, #128	; 0x80
 8002f82:	81a3      	strh	r3, [r4, #12]
 8002f84:	6126      	str	r6, [r4, #16]
 8002f86:	444e      	add	r6, r9
 8002f88:	6026      	str	r6, [r4, #0]
 8002f8a:	463e      	mov	r6, r7
 8002f8c:	6165      	str	r5, [r4, #20]
 8002f8e:	eba5 0509 	sub.w	r5, r5, r9
 8002f92:	60a5      	str	r5, [r4, #8]
 8002f94:	42be      	cmp	r6, r7
 8002f96:	d900      	bls.n	8002f9a <__ssputs_r+0x86>
 8002f98:	463e      	mov	r6, r7
 8002f9a:	4632      	mov	r2, r6
 8002f9c:	4641      	mov	r1, r8
 8002f9e:	6820      	ldr	r0, [r4, #0]
 8002fa0:	f000 fac6 	bl	8003530 <memmove>
 8002fa4:	68a3      	ldr	r3, [r4, #8]
 8002fa6:	6822      	ldr	r2, [r4, #0]
 8002fa8:	1b9b      	subs	r3, r3, r6
 8002faa:	4432      	add	r2, r6
 8002fac:	2000      	movs	r0, #0
 8002fae:	60a3      	str	r3, [r4, #8]
 8002fb0:	6022      	str	r2, [r4, #0]
 8002fb2:	e7db      	b.n	8002f6c <__ssputs_r+0x58>
 8002fb4:	462a      	mov	r2, r5
 8002fb6:	f000 fb7b 	bl	80036b0 <_realloc_r>
 8002fba:	4606      	mov	r6, r0
 8002fbc:	2800      	cmp	r0, #0
 8002fbe:	d1e1      	bne.n	8002f84 <__ssputs_r+0x70>
 8002fc0:	4650      	mov	r0, sl
 8002fc2:	6921      	ldr	r1, [r4, #16]
 8002fc4:	f000 face 	bl	8003564 <_free_r>
 8002fc8:	e7c7      	b.n	8002f5a <__ssputs_r+0x46>
	...

08002fcc <_svfiprintf_r>:
 8002fcc:	e92d 4ff0 	stmdb	sp!, {r4, r5, r6, r7, r8, r9, sl, fp, lr}
 8002fd0:	4698      	mov	r8, r3
 8002fd2:	898b      	ldrh	r3, [r1, #12]
 8002fd4:	4607      	mov	r7, r0
 8002fd6:	061b      	lsls	r3, r3, #24
 8002fd8:	460d      	mov	r5, r1
 8002fda:	4614      	mov	r4, r2
 8002fdc:	b09d      	sub	sp, #116	; 0x74
 8002fde:	d50e      	bpl.n	8002ffe <_svfiprintf_r+0x32>
 8002fe0:	690b      	ldr	r3, [r1, #16]
 8002fe2:	b963      	cbnz	r3, 8002ffe <_svfiprintf_r+0x32>
 8002fe4:	2140      	movs	r1, #64	; 0x40
 8002fe6:	f000 fb09 	bl	80035fc <_malloc_r>
 8002fea:	6028      	str	r0, [r5, #0]
 8002fec:	6128      	str	r0, [r5, #16]
 8002fee:	b920      	cbnz	r0, 8002ffa <_svfiprintf_r+0x2e>
 8002ff0:	230c      	movs	r3, #12
 8002ff2:	603b      	str	r3, [r7, #0]
 8002ff4:	f04f 30ff 	mov.w	r0, #4294967295	; 0xffffffff
 8002ff8:	e0d1      	b.n	800319e <_svfiprintf_r+0x1d2>
 8002ffa:	2340      	movs	r3, #64	; 0x40
 8002ffc:	616b      	str	r3, [r5, #20]
 8002ffe:	2300      	movs	r3, #0
 8003000:	9309      	str	r3, [sp, #36]	; 0x24
 8003002:	2320      	movs	r3, #32
 8003004:	f88d 3029 	strb.w	r3, [sp, #41]	; 0x29
 8003008:	2330      	movs	r3, #48	; 0x30
 800300a:	f04f 0901 	mov.w	r9, #1
 800300e:	f8cd 800c 	str.w	r8, [sp, #12]
 8003012:	f8df 81a4 	ldr.w	r8, [pc, #420]	; 80031b8 <_svfiprintf_r+0x1ec>
 8003016:	f88d 302a 	strb.w	r3, [sp, #42]	; 0x2a
 800301a:	4623      	mov	r3, r4
 800301c:	469a      	mov	sl, r3
 800301e:	f813 2b01 	ldrb.w	r2, [r3], #1
 8003022:	b10a      	cbz	r2, 8003028 <_svfiprintf_r+0x5c>
 8003024:	2a25      	cmp	r2, #37	; 0x25
 8003026:	d1f9      	bne.n	800301c <_svfiprintf_r+0x50>
 8003028:	ebba 0b04 	subs.w	fp, sl, r4
 800302c:	d00b      	beq.n	8003046 <_svfiprintf_r+0x7a>
 800302e:	465b      	mov	r3, fp
 8003030:	4622      	mov	r2, r4
 8003032:	4629      	mov	r1, r5
 8003034:	4638      	mov	r0, r7
 8003036:	f7ff ff6d 	bl	8002f14 <__ssputs_r>
 800303a:	3001      	adds	r0, #1
 800303c:	f000 80aa 	beq.w	8003194 <_svfiprintf_r+0x1c8>
 8003040:	9a09      	ldr	r2, [sp, #36]	; 0x24
 8003042:	445a      	add	r2, fp
 8003044:	9209      	str	r2, [sp, #36]	; 0x24
 8003046:	f89a 3000 	ldrb.w	r3, [sl]
 800304a:	2b00      	cmp	r3, #0
 800304c:	f000 80a2 	beq.w	8003194 <_svfiprintf_r+0x1c8>
 8003050:	2300      	movs	r3, #0
 8003052:	f04f 32ff 	mov.w	r2, #4294967295	; 0xffffffff
 8003056:	e9cd 2305 	strd	r2, r3, [sp, #20]
 800305a:	f10a 0a01 	add.w	sl, sl, #1
 800305e:	9304      	str	r3, [sp, #16]
 8003060:	9307      	str	r3, [sp, #28]
 8003062:	f88d 3053 	strb.w	r3, [sp, #83]	; 0x53
 8003066:	931a      	str	r3, [sp, #104]	; 0x68
 8003068:	4654      	mov	r4, sl
 800306a:	2205      	movs	r2, #5
 800306c:	f814 1b01 	ldrb.w	r1, [r4], #1
 8003070:	4851      	ldr	r0, [pc, #324]	; (80031b8 <_svfiprintf_r+0x1ec>)
 8003072:	f000 fa41 	bl	80034f8 <memchr>
 8003076:	9a04      	ldr	r2, [sp, #16]
 8003078:	b9d8      	cbnz	r0, 80030b2 <_svfiprintf_r+0xe6>
 800307a:	06d0      	lsls	r0, r2, #27
 800307c:	bf44      	itt	mi
 800307e:	2320      	movmi	r3, #32
 8003080:	f88d 3053 	strbmi.w	r3, [sp, #83]	; 0x53
 8003084:	0711      	lsls	r1, r2, #28
 8003086:	bf44      	itt	mi
 8003088:	232b      	movmi	r3, #43	; 0x2b
 800308a:	f88d 3053 	strbmi.w	r3, [sp, #83]	; 0x53
 800308e:	f89a 3000 	ldrb.w	r3, [sl]
 8003092:	2b2a      	cmp	r3, #42	; 0x2a
 8003094:	d015      	beq.n	80030c2 <_svfiprintf_r+0xf6>
 8003096:	4654      	mov	r4, sl
 8003098:	2000      	movs	r0, #0
 800309a:	f04f 0c0a 	mov.w	ip, #10
 800309e:	9a07      	ldr	r2, [sp, #28]
 80030a0:	4621      	mov	r1, r4
 80030a2:	f811 3b01 	ldrb.w	r3, [r1], #1
 80030a6:	3b30      	subs	r3, #48	; 0x30
 80030a8:	2b09      	cmp	r3, #9
 80030aa:	d94e      	bls.n	800314a <_svfiprintf_r+0x17e>
 80030ac:	b1b0      	cbz	r0, 80030dc <_svfiprintf_r+0x110>
 80030ae:	9207      	str	r2, [sp, #28]
 80030b0:	e014      	b.n	80030dc <_svfiprintf_r+0x110>
 80030b2:	eba0 0308 	sub.w	r3, r0, r8
 80030b6:	fa09 f303 	lsl.w	r3, r9, r3
 80030ba:	4313      	orrs	r3, r2
 80030bc:	46a2      	mov	sl, r4
 80030be:	9304      	str	r3, [sp, #16]
 80030c0:	e7d2      	b.n	8003068 <_svfiprintf_r+0x9c>
 80030c2:	9b03      	ldr	r3, [sp, #12]
 80030c4:	1d19      	adds	r1, r3, #4
 80030c6:	681b      	ldr	r3, [r3, #0]
 80030c8:	9103      	str	r1, [sp, #12]
 80030ca:	2b00      	cmp	r3, #0
 80030cc:	bfbb      	ittet	lt
 80030ce:	425b      	neglt	r3, r3
 80030d0:	f042 0202 	orrlt.w	r2, r2, #2
 80030d4:	9307      	strge	r3, [sp, #28]
 80030d6:	9307      	strlt	r3, [sp, #28]
 80030d8:	bfb8      	it	lt
 80030da:	9204      	strlt	r2, [sp, #16]
 80030dc:	7823      	ldrb	r3, [r4, #0]
 80030de:	2b2e      	cmp	r3, #46	; 0x2e
 80030e0:	d10c      	bne.n	80030fc <_svfiprintf_r+0x130>
 80030e2:	7863      	ldrb	r3, [r4, #1]
 80030e4:	2b2a      	cmp	r3, #42	; 0x2a
 80030e6:	d135      	bne.n	8003154 <_svfiprintf_r+0x188>
 80030e8:	9b03      	ldr	r3, [sp, #12]
 80030ea:	3402      	adds	r4, #2
 80030ec:	1d1a      	adds	r2, r3, #4
 80030ee:	681b      	ldr	r3, [r3, #0]
 80030f0:	9203      	str	r2, [sp, #12]
 80030f2:	2b00      	cmp	r3, #0
 80030f4:	bfb8      	it	lt
 80030f6:	f04f 33ff 	movlt.w	r3, #4294967295	; 0xffffffff
 80030fa:	9305      	str	r3, [sp, #20]
 80030fc:	f8df a0c8 	ldr.w	sl, [pc, #200]	; 80031c8 <_svfiprintf_r+0x1fc>
 8003100:	2203      	movs	r2, #3
 8003102:	4650      	mov	r0, sl
 8003104:	7821      	ldrb	r1, [r4, #0]
 8003106:	f000 f9f7 	bl	80034f8 <memchr>
 800310a:	b140      	cbz	r0, 800311e <_svfiprintf_r+0x152>
 800310c:	2340      	movs	r3, #64	; 0x40
 800310e:	eba0 000a 	sub.w	r0, r0, sl
 8003112:	fa03 f000 	lsl.w	r0, r3, r0
 8003116:	9b04      	ldr	r3, [sp, #16]
 8003118:	3401      	adds	r4, #1
 800311a:	4303      	orrs	r3, r0
 800311c:	9304      	str	r3, [sp, #16]
 800311e:	f814 1b01 	ldrb.w	r1, [r4], #1
 8003122:	2206      	movs	r2, #6
 8003124:	4825      	ldr	r0, [pc, #148]	; (80031bc <_svfiprintf_r+0x1f0>)
 8003126:	f88d 1028 	strb.w	r1, [sp, #40]	; 0x28
 800312a:	f000 f9e5 	bl	80034f8 <memchr>
 800312e:	2800      	cmp	r0, #0
 8003130:	d038      	beq.n	80031a4 <_svfiprintf_r+0x1d8>
 8003132:	4b23      	ldr	r3, [pc, #140]	; (80031c0 <_svfiprintf_r+0x1f4>)
 8003134:	bb1b      	cbnz	r3, 800317e <_svfiprintf_r+0x1b2>
 8003136:	9b03      	ldr	r3, [sp, #12]
 8003138:	3307      	adds	r3, #7
 800313a:	f023 0307 	bic.w	r3, r3, #7
 800313e:	3308      	adds	r3, #8
 8003140:	9303      	str	r3, [sp, #12]
 8003142:	9b09      	ldr	r3, [sp, #36]	; 0x24
 8003144:	4433      	add	r3, r6
 8003146:	9309      	str	r3, [sp, #36]	; 0x24
 8003148:	e767      	b.n	800301a <_svfiprintf_r+0x4e>
 800314a:	460c      	mov	r4, r1
 800314c:	2001      	movs	r0, #1
 800314e:	fb0c 3202 	mla	r2, ip, r2, r3
 8003152:	e7a5      	b.n	80030a0 <_svfiprintf_r+0xd4>
 8003154:	2300      	movs	r3, #0
 8003156:	f04f 0c0a 	mov.w	ip, #10
 800315a:	4619      	mov	r1, r3
 800315c:	3401      	adds	r4, #1
 800315e:	9305      	str	r3, [sp, #20]
 8003160:	4620      	mov	r0, r4
 8003162:	f810 2b01 	ldrb.w	r2, [r0], #1
 8003166:	3a30      	subs	r2, #48	; 0x30
 8003168:	2a09      	cmp	r2, #9
 800316a:	d903      	bls.n	8003174 <_svfiprintf_r+0x1a8>
 800316c:	2b00      	cmp	r3, #0
 800316e:	d0c5      	beq.n	80030fc <_svfiprintf_r+0x130>
 8003170:	9105      	str	r1, [sp, #20]
 8003172:	e7c3      	b.n	80030fc <_svfiprintf_r+0x130>
 8003174:	4604      	mov	r4, r0
 8003176:	2301      	movs	r3, #1
 8003178:	fb0c 2101 	mla	r1, ip, r1, r2
 800317c:	e7f0      	b.n	8003160 <_svfiprintf_r+0x194>
 800317e:	ab03      	add	r3, sp, #12
 8003180:	9300      	str	r3, [sp, #0]
 8003182:	462a      	mov	r2, r5
 8003184:	4638      	mov	r0, r7
 8003186:	4b0f      	ldr	r3, [pc, #60]	; (80031c4 <_svfiprintf_r+0x1f8>)
 8003188:	a904      	add	r1, sp, #16
 800318a:	f3af 8000 	nop.w
 800318e:	1c42      	adds	r2, r0, #1
 8003190:	4606      	mov	r6, r0
 8003192:	d1d6      	bne.n	8003142 <_svfiprintf_r+0x176>
 8003194:	89ab      	ldrh	r3, [r5, #12]
 8003196:	065b      	lsls	r3, r3, #25
 8003198:	f53f af2c 	bmi.w	8002ff4 <_svfiprintf_r+0x28>
 800319c:	9809      	ldr	r0, [sp, #36]	; 0x24
 800319e:	b01d      	add	sp, #116	; 0x74
 80031a0:	e8bd 8ff0 	ldmia.w	sp!, {r4, r5, r6, r7, r8, r9, sl, fp, pc}
 80031a4:	ab03      	add	r3, sp, #12
 80031a6:	9300      	str	r3, [sp, #0]
 80031a8:	462a      	mov	r2, r5
 80031aa:	4638      	mov	r0, r7
 80031ac:	4b05      	ldr	r3, [pc, #20]	; (80031c4 <_svfiprintf_r+0x1f8>)
 80031ae:	a904      	add	r1, sp, #16
 80031b0:	f000 f87c 	bl	80032ac <_printf_i>
 80031b4:	e7eb      	b.n	800318e <_svfiprintf_r+0x1c2>
 80031b6:	bf00      	nop
 80031b8:	08003a1e 	.word	0x08003a1e
 80031bc:	08003a28 	.word	0x08003a28
 80031c0:	00000000 	.word	0x00000000
 80031c4:	08002f15 	.word	0x08002f15
 80031c8:	08003a24 	.word	0x08003a24

080031cc <_printf_common>:
 80031cc:	e92d 47f0 	stmdb	sp!, {r4, r5, r6, r7, r8, r9, sl, lr}
 80031d0:	4616      	mov	r6, r2
 80031d2:	4699      	mov	r9, r3
 80031d4:	688a      	ldr	r2, [r1, #8]
 80031d6:	690b      	ldr	r3, [r1, #16]
 80031d8:	4607      	mov	r7, r0
 80031da:	4293      	cmp	r3, r2
 80031dc:	bfb8      	it	lt
 80031de:	4613      	movlt	r3, r2
 80031e0:	6033      	str	r3, [r6, #0]
 80031e2:	f891 2043 	ldrb.w	r2, [r1, #67]	; 0x43
 80031e6:	460c      	mov	r4, r1
 80031e8:	f8dd 8020 	ldr.w	r8, [sp, #32]
 80031ec:	b10a      	cbz	r2, 80031f2 <_printf_common+0x26>
 80031ee:	3301      	adds	r3, #1
 80031f0:	6033      	str	r3, [r6, #0]
 80031f2:	6823      	ldr	r3, [r4, #0]
 80031f4:	0699      	lsls	r1, r3, #26
 80031f6:	bf42      	ittt	mi
 80031f8:	6833      	ldrmi	r3, [r6, #0]
 80031fa:	3302      	addmi	r3, #2
 80031fc:	6033      	strmi	r3, [r6, #0]
 80031fe:	6825      	ldr	r5, [r4, #0]
 8003200:	f015 0506 	ands.w	r5, r5, #6
 8003204:	d106      	bne.n	8003214 <_printf_common+0x48>
 8003206:	f104 0a19 	add.w	sl, r4, #25
 800320a:	68e3      	ldr	r3, [r4, #12]
 800320c:	6832      	ldr	r2, [r6, #0]
 800320e:	1a9b      	subs	r3, r3, r2
 8003210:	42ab      	cmp	r3, r5
 8003212:	dc28      	bgt.n	8003266 <_printf_common+0x9a>
 8003214:	f894 2043 	ldrb.w	r2, [r4, #67]	; 0x43
 8003218:	1e13      	subs	r3, r2, #0
 800321a:	6822      	ldr	r2, [r4, #0]
 800321c:	bf18      	it	ne
 800321e:	2301      	movne	r3, #1
 8003220:	0692      	lsls	r2, r2, #26
 8003222:	d42d      	bmi.n	8003280 <_printf_common+0xb4>
 8003224:	4649      	mov	r1, r9
 8003226:	4638      	mov	r0, r7
 8003228:	f104 0243 	add.w	r2, r4, #67	; 0x43
 800322c:	47c0      	blx	r8
 800322e:	3001      	adds	r0, #1
 8003230:	d020      	beq.n	8003274 <_printf_common+0xa8>
 8003232:	6823      	ldr	r3, [r4, #0]
 8003234:	68e5      	ldr	r5, [r4, #12]
 8003236:	f003 0306 	and.w	r3, r3, #6
 800323a:	2b04      	cmp	r3, #4
 800323c:	bf18      	it	ne
 800323e:	2500      	movne	r5, #0
 8003240:	6832      	ldr	r2, [r6, #0]
 8003242:	f04f 0600 	mov.w	r6, #0
 8003246:	68a3      	ldr	r3, [r4, #8]
 8003248:	bf08      	it	eq
 800324a:	1aad      	subeq	r5, r5, r2
 800324c:	6922      	ldr	r2, [r4, #16]
 800324e:	bf08      	it	eq
 8003250:	ea25 75e5 	biceq.w	r5, r5, r5, asr #31
 8003254:	4293      	cmp	r3, r2
 8003256:	bfc4      	itt	gt
 8003258:	1a9b      	subgt	r3, r3, r2
 800325a:	18ed      	addgt	r5, r5, r3
 800325c:	341a      	adds	r4, #26
 800325e:	42b5      	cmp	r5, r6
 8003260:	d11a      	bne.n	8003298 <_printf_common+0xcc>
 8003262:	2000      	movs	r0, #0
 8003264:	e008      	b.n	8003278 <_printf_common+0xac>
 8003266:	2301      	movs	r3, #1
 8003268:	4652      	mov	r2, sl
 800326a:	4649      	mov	r1, r9
 800326c:	4638      	mov	r0, r7
 800326e:	47c0      	blx	r8
 8003270:	3001      	adds	r0, #1
 8003272:	d103      	bne.n	800327c <_printf_common+0xb0>
 8003274:	f04f 30ff 	mov.w	r0, #4294967295	; 0xffffffff
 8003278:	e8bd 87f0 	ldmia.w	sp!, {r4, r5, r6, r7, r8, r9, sl, pc}
 800327c:	3501      	adds	r5, #1
 800327e:	e7c4      	b.n	800320a <_printf_common+0x3e>
 8003280:	2030      	movs	r0, #48	; 0x30
 8003282:	18e1      	adds	r1, r4, r3
 8003284:	f881 0043 	strb.w	r0, [r1, #67]	; 0x43
 8003288:	1c5a      	adds	r2, r3, #1
 800328a:	f894 1045 	ldrb.w	r1, [r4, #69]	; 0x45
 800328e:	4422      	add	r2, r4
 8003290:	3302      	adds	r3, #2
 8003292:	f882 1043 	strb.w	r1, [r2, #67]	; 0x43
 8003296:	e7c5      	b.n	8003224 <_printf_common+0x58>
 8003298:	2301      	movs	r3, #1
 800329a:	4622      	mov	r2, r4
 800329c:	4649      	mov	r1, r9
 800329e:	4638      	mov	r0, r7
 80032a0:	47c0      	blx	r8
 80032a2:	3001      	adds	r0, #1
 80032a4:	d0e6      	beq.n	8003274 <_printf_common+0xa8>
 80032a6:	3601      	adds	r6, #1
 80032a8:	e7d9      	b.n	800325e <_printf_common+0x92>
	...

080032ac <_printf_i>:
 80032ac:	e92d 47ff 	stmdb	sp!, {r0, r1, r2, r3, r4, r5, r6, r7, r8, r9, sl, lr}
 80032b0:	460c      	mov	r4, r1
 80032b2:	7e27      	ldrb	r7, [r4, #24]
 80032b4:	4691      	mov	r9, r2
 80032b6:	2f78      	cmp	r7, #120	; 0x78
 80032b8:	4680      	mov	r8, r0
 80032ba:	469a      	mov	sl, r3
 80032bc:	990c      	ldr	r1, [sp, #48]	; 0x30
 80032be:	f104 0243 	add.w	r2, r4, #67	; 0x43
 80032c2:	d807      	bhi.n	80032d4 <_printf_i+0x28>
 80032c4:	2f62      	cmp	r7, #98	; 0x62
 80032c6:	d80a      	bhi.n	80032de <_printf_i+0x32>
 80032c8:	2f00      	cmp	r7, #0
 80032ca:	f000 80d9 	beq.w	8003480 <_printf_i+0x1d4>
 80032ce:	2f58      	cmp	r7, #88	; 0x58
 80032d0:	f000 80a4 	beq.w	800341c <_printf_i+0x170>
 80032d4:	f104 0642 	add.w	r6, r4, #66	; 0x42
 80032d8:	f884 7042 	strb.w	r7, [r4, #66]	; 0x42
 80032dc:	e03a      	b.n	8003354 <_printf_i+0xa8>
 80032de:	f1a7 0363 	sub.w	r3, r7, #99	; 0x63
 80032e2:	2b15      	cmp	r3, #21
 80032e4:	d8f6      	bhi.n	80032d4 <_printf_i+0x28>
 80032e6:	a001      	add	r0, pc, #4	; (adr r0, 80032ec <_printf_i+0x40>)
 80032e8:	f850 f023 	ldr.w	pc, [r0, r3, lsl #2]
 80032ec:	08003345 	.word	0x08003345
 80032f0:	08003359 	.word	0x08003359
 80032f4:	080032d5 	.word	0x080032d5
 80032f8:	080032d5 	.word	0x080032d5
 80032fc:	080032d5 	.word	0x080032d5
 8003300:	080032d5 	.word	0x080032d5
 8003304:	08003359 	.word	0x08003359
 8003308:	080032d5 	.word	0x080032d5
 800330c:	080032d5 	.word	0x080032d5
 8003310:	080032d5 	.word	0x080032d5
 8003314:	080032d5 	.word	0x080032d5
 8003318:	08003467 	.word	0x08003467
 800331c:	08003389 	.word	0x08003389
 8003320:	08003449 	.word	0x08003449
 8003324:	080032d5 	.word	0x080032d5
 8003328:	080032d5 	.word	0x080032d5
 800332c:	08003489 	.word	0x08003489
 8003330:	080032d5 	.word	0x080032d5
 8003334:	08003389 	.word	0x08003389
 8003338:	080032d5 	.word	0x080032d5
 800333c:	080032d5 	.word	0x080032d5
 8003340:	08003451 	.word	0x08003451
 8003344:	680b      	ldr	r3, [r1, #0]
 8003346:	f104 0642 	add.w	r6, r4, #66	; 0x42
 800334a:	1d1a      	adds	r2, r3, #4
 800334c:	681b      	ldr	r3, [r3, #0]
 800334e:	600a      	str	r2, [r1, #0]
 8003350:	f884 3042 	strb.w	r3, [r4, #66]	; 0x42
 8003354:	2301      	movs	r3, #1
 8003356:	e0a4      	b.n	80034a2 <_printf_i+0x1f6>
 8003358:	6825      	ldr	r5, [r4, #0]
 800335a:	6808      	ldr	r0, [r1, #0]
 800335c:	062e      	lsls	r6, r5, #24
 800335e:	f100 0304 	add.w	r3, r0, #4
 8003362:	d50a      	bpl.n	800337a <_printf_i+0xce>
 8003364:	6805      	ldr	r5, [r0, #0]
 8003366:	600b      	str	r3, [r1, #0]
 8003368:	2d00      	cmp	r5, #0
 800336a:	da03      	bge.n	8003374 <_printf_i+0xc8>
 800336c:	232d      	movs	r3, #45	; 0x2d
 800336e:	426d      	negs	r5, r5
 8003370:	f884 3043 	strb.w	r3, [r4, #67]	; 0x43
 8003374:	230a      	movs	r3, #10
 8003376:	485e      	ldr	r0, [pc, #376]	; (80034f0 <_printf_i+0x244>)
 8003378:	e019      	b.n	80033ae <_printf_i+0x102>
 800337a:	f015 0f40 	tst.w	r5, #64	; 0x40
 800337e:	6805      	ldr	r5, [r0, #0]
 8003380:	600b      	str	r3, [r1, #0]
 8003382:	bf18      	it	ne
 8003384:	b22d      	sxthne	r5, r5
 8003386:	e7ef      	b.n	8003368 <_printf_i+0xbc>
 8003388:	680b      	ldr	r3, [r1, #0]
 800338a:	6825      	ldr	r5, [r4, #0]
 800338c:	1d18      	adds	r0, r3, #4
 800338e:	6008      	str	r0, [r1, #0]
 8003390:	0628      	lsls	r0, r5, #24
 8003392:	d501      	bpl.n	8003398 <_printf_i+0xec>
 8003394:	681d      	ldr	r5, [r3, #0]
 8003396:	e002      	b.n	800339e <_printf_i+0xf2>
 8003398:	0669      	lsls	r1, r5, #25
 800339a:	d5fb      	bpl.n	8003394 <_printf_i+0xe8>
 800339c:	881d      	ldrh	r5, [r3, #0]
 800339e:	2f6f      	cmp	r7, #111	; 0x6f
 80033a0:	bf0c      	ite	eq
 80033a2:	2308      	moveq	r3, #8
 80033a4:	230a      	movne	r3, #10
 80033a6:	4852      	ldr	r0, [pc, #328]	; (80034f0 <_printf_i+0x244>)
 80033a8:	2100      	movs	r1, #0
 80033aa:	f884 1043 	strb.w	r1, [r4, #67]	; 0x43
 80033ae:	6866      	ldr	r6, [r4, #4]
 80033b0:	2e00      	cmp	r6, #0
 80033b2:	bfa8      	it	ge
 80033b4:	6821      	ldrge	r1, [r4, #0]
 80033b6:	60a6      	str	r6, [r4, #8]
 80033b8:	bfa4      	itt	ge
 80033ba:	f021 0104 	bicge.w	r1, r1, #4
 80033be:	6021      	strge	r1, [r4, #0]
 80033c0:	b90d      	cbnz	r5, 80033c6 <_printf_i+0x11a>
 80033c2:	2e00      	cmp	r6, #0
 80033c4:	d04d      	beq.n	8003462 <_printf_i+0x1b6>
 80033c6:	4616      	mov	r6, r2
 80033c8:	fbb5 f1f3 	udiv	r1, r5, r3
 80033cc:	fb03 5711 	mls	r7, r3, r1, r5
 80033d0:	5dc7      	ldrb	r7, [r0, r7]
 80033d2:	f806 7d01 	strb.w	r7, [r6, #-1]!
 80033d6:	462f      	mov	r7, r5
 80033d8:	42bb      	cmp	r3, r7
 80033da:	460d      	mov	r5, r1
 80033dc:	d9f4      	bls.n	80033c8 <_printf_i+0x11c>
 80033de:	2b08      	cmp	r3, #8
 80033e0:	d10b      	bne.n	80033fa <_printf_i+0x14e>
 80033e2:	6823      	ldr	r3, [r4, #0]
 80033e4:	07df      	lsls	r7, r3, #31
 80033e6:	d508      	bpl.n	80033fa <_printf_i+0x14e>
 80033e8:	6923      	ldr	r3, [r4, #16]
 80033ea:	6861      	ldr	r1, [r4, #4]
 80033ec:	4299      	cmp	r1, r3
 80033ee:	bfde      	ittt	le
 80033f0:	2330      	movle	r3, #48	; 0x30
 80033f2:	f806 3c01 	strble.w	r3, [r6, #-1]
 80033f6:	f106 36ff 	addle.w	r6, r6, #4294967295	; 0xffffffff
 80033fa:	1b92      	subs	r2, r2, r6
 80033fc:	6122      	str	r2, [r4, #16]
 80033fe:	464b      	mov	r3, r9
 8003400:	4621      	mov	r1, r4
 8003402:	4640      	mov	r0, r8
 8003404:	f8cd a000 	str.w	sl, [sp]
 8003408:	aa03      	add	r2, sp, #12
 800340a:	f7ff fedf 	bl	80031cc <_printf_common>
 800340e:	3001      	adds	r0, #1
 8003410:	d14c      	bne.n	80034ac <_printf_i+0x200>
 8003412:	f04f 30ff 	mov.w	r0, #4294967295	; 0xffffffff
 8003416:	b004      	add	sp, #16
 8003418:	e8bd 87f0 	ldmia.w	sp!, {r4, r5, r6, r7, r8, r9, sl, pc}
 800341c:	4834      	ldr	r0, [pc, #208]	; (80034f0 <_printf_i+0x244>)
 800341e:	f884 7045 	strb.w	r7, [r4, #69]	; 0x45
 8003422:	680e      	ldr	r6, [r1, #0]
 8003424:	6823      	ldr	r3, [r4, #0]
 8003426:	f856 5b04 	ldr.w	r5, [r6], #4
 800342a:	061f      	lsls	r7, r3, #24
 800342c:	600e      	str	r6, [r1, #0]
 800342e:	d514      	bpl.n	800345a <_printf_i+0x1ae>
 8003430:	07d9      	lsls	r1, r3, #31
 8003432:	bf44      	itt	mi
 8003434:	f043 0320 	orrmi.w	r3, r3, #32
 8003438:	6023      	strmi	r3, [r4, #0]
 800343a:	b91d      	cbnz	r5, 8003444 <_printf_i+0x198>
 800343c:	6823      	ldr	r3, [r4, #0]
 800343e:	f023 0320 	bic.w	r3, r3, #32
 8003442:	6023      	str	r3, [r4, #0]
 8003444:	2310      	movs	r3, #16
 8003446:	e7af      	b.n	80033a8 <_printf_i+0xfc>
 8003448:	6823      	ldr	r3, [r4, #0]
 800344a:	f043 0320 	orr.w	r3, r3, #32
 800344e:	6023      	str	r3, [r4, #0]
 8003450:	2378      	movs	r3, #120	; 0x78
 8003452:	4828      	ldr	r0, [pc, #160]	; (80034f4 <_printf_i+0x248>)
 8003454:	f884 3045 	strb.w	r3, [r4, #69]	; 0x45
 8003458:	e7e3      	b.n	8003422 <_printf_i+0x176>
 800345a:	065e      	lsls	r6, r3, #25
 800345c:	bf48      	it	mi
 800345e:	b2ad      	uxthmi	r5, r5
 8003460:	e7e6      	b.n	8003430 <_printf_i+0x184>
 8003462:	4616      	mov	r6, r2
 8003464:	e7bb      	b.n	80033de <_printf_i+0x132>
 8003466:	680b      	ldr	r3, [r1, #0]
 8003468:	6826      	ldr	r6, [r4, #0]
 800346a:	1d1d      	adds	r5, r3, #4
 800346c:	6960      	ldr	r0, [r4, #20]
 800346e:	600d      	str	r5, [r1, #0]
 8003470:	0635      	lsls	r5, r6, #24
 8003472:	681b      	ldr	r3, [r3, #0]
 8003474:	d501      	bpl.n	800347a <_printf_i+0x1ce>
 8003476:	6018      	str	r0, [r3, #0]
 8003478:	e002      	b.n	8003480 <_printf_i+0x1d4>
 800347a:	0671      	lsls	r1, r6, #25
 800347c:	d5fb      	bpl.n	8003476 <_printf_i+0x1ca>
 800347e:	8018      	strh	r0, [r3, #0]
 8003480:	2300      	movs	r3, #0
 8003482:	4616      	mov	r6, r2
 8003484:	6123      	str	r3, [r4, #16]
 8003486:	e7ba      	b.n	80033fe <_printf_i+0x152>
 8003488:	680b      	ldr	r3, [r1, #0]
 800348a:	1d1a      	adds	r2, r3, #4
 800348c:	600a      	str	r2, [r1, #0]
 800348e:	681e      	ldr	r6, [r3, #0]
 8003490:	2100      	movs	r1, #0
 8003492:	4630      	mov	r0, r6
 8003494:	6862      	ldr	r2, [r4, #4]
 8003496:	f000 f82f 	bl	80034f8 <memchr>
 800349a:	b108      	cbz	r0, 80034a0 <_printf_i+0x1f4>
 800349c:	1b80      	subs	r0, r0, r6
 800349e:	6060      	str	r0, [r4, #4]
 80034a0:	6863      	ldr	r3, [r4, #4]
 80034a2:	6123      	str	r3, [r4, #16]
 80034a4:	2300      	movs	r3, #0
 80034a6:	f884 3043 	strb.w	r3, [r4, #67]	; 0x43
 80034aa:	e7a8      	b.n	80033fe <_printf_i+0x152>
 80034ac:	4632      	mov	r2, r6
 80034ae:	4649      	mov	r1, r9
 80034b0:	4640      	mov	r0, r8
 80034b2:	6923      	ldr	r3, [r4, #16]
 80034b4:	47d0      	blx	sl
 80034b6:	3001      	adds	r0, #1
 80034b8:	d0ab      	beq.n	8003412 <_printf_i+0x166>
 80034ba:	6823      	ldr	r3, [r4, #0]
 80034bc:	079b      	lsls	r3, r3, #30
 80034be:	d413      	bmi.n	80034e8 <_printf_i+0x23c>
 80034c0:	68e0      	ldr	r0, [r4, #12]
 80034c2:	9b03      	ldr	r3, [sp, #12]
 80034c4:	4298      	cmp	r0, r3
 80034c6:	bfb8      	it	lt
 80034c8:	4618      	movlt	r0, r3
 80034ca:	e7a4      	b.n	8003416 <_printf_i+0x16a>
 80034cc:	2301      	movs	r3, #1
 80034ce:	4632      	mov	r2, r6
 80034d0:	4649      	mov	r1, r9
 80034d2:	4640      	mov	r0, r8
 80034d4:	47d0      	blx	sl
 80034d6:	3001      	adds	r0, #1
 80034d8:	d09b      	beq.n	8003412 <_printf_i+0x166>
 80034da:	3501      	adds	r5, #1
 80034dc:	68e3      	ldr	r3, [r4, #12]
 80034de:	9903      	ldr	r1, [sp, #12]
 80034e0:	1a5b      	subs	r3, r3, r1
 80034e2:	42ab      	cmp	r3, r5
 80034e4:	dcf2      	bgt.n	80034cc <_printf_i+0x220>
 80034e6:	e7eb      	b.n	80034c0 <_printf_i+0x214>
 80034e8:	2500      	movs	r5, #0
 80034ea:	f104 0619 	add.w	r6, r4, #25
 80034ee:	e7f5      	b.n	80034dc <_printf_i+0x230>
 80034f0:	08003a2f 	.word	0x08003a2f
 80034f4:	08003a40 	.word	0x08003a40

080034f8 <memchr>:
 80034f8:	4603      	mov	r3, r0
 80034fa:	b510      	push	{r4, lr}
 80034fc:	b2c9      	uxtb	r1, r1
 80034fe:	4402      	add	r2, r0
 8003500:	4293      	cmp	r3, r2
 8003502:	4618      	mov	r0, r3
 8003504:	d101      	bne.n	800350a <memchr+0x12>
 8003506:	2000      	movs	r0, #0
 8003508:	e003      	b.n	8003512 <memchr+0x1a>
 800350a:	7804      	ldrb	r4, [r0, #0]
 800350c:	3301      	adds	r3, #1
 800350e:	428c      	cmp	r4, r1
 8003510:	d1f6      	bne.n	8003500 <memchr+0x8>
 8003512:	bd10      	pop	{r4, pc}

08003514 <memcpy>:
 8003514:	440a      	add	r2, r1
 8003516:	4291      	cmp	r1, r2
 8003518:	f100 33ff 	add.w	r3, r0, #4294967295	; 0xffffffff
 800351c:	d100      	bne.n	8003520 <memcpy+0xc>
 800351e:	4770      	bx	lr
 8003520:	b510      	push	{r4, lr}
 8003522:	f811 4b01 	ldrb.w	r4, [r1], #1
 8003526:	4291      	cmp	r1, r2
 8003528:	f803 4f01 	strb.w	r4, [r3, #1]!
 800352c:	d1f9      	bne.n	8003522 <memcpy+0xe>
 800352e:	bd10      	pop	{r4, pc}

08003530 <memmove>:
 8003530:	4288      	cmp	r0, r1
 8003532:	b510      	push	{r4, lr}
 8003534:	eb01 0402 	add.w	r4, r1, r2
 8003538:	d902      	bls.n	8003540 <memmove+0x10>
 800353a:	4284      	cmp	r4, r0
 800353c:	4623      	mov	r3, r4
 800353e:	d807      	bhi.n	8003550 <memmove+0x20>
 8003540:	1e43      	subs	r3, r0, #1
 8003542:	42a1      	cmp	r1, r4
 8003544:	d008      	beq.n	8003558 <memmove+0x28>
 8003546:	f811 2b01 	ldrb.w	r2, [r1], #1
 800354a:	f803 2f01 	strb.w	r2, [r3, #1]!
 800354e:	e7f8      	b.n	8003542 <memmove+0x12>
 8003550:	4601      	mov	r1, r0
 8003552:	4402      	add	r2, r0
 8003554:	428a      	cmp	r2, r1
 8003556:	d100      	bne.n	800355a <memmove+0x2a>
 8003558:	bd10      	pop	{r4, pc}
 800355a:	f813 4d01 	ldrb.w	r4, [r3, #-1]!
 800355e:	f802 4d01 	strb.w	r4, [r2, #-1]!
 8003562:	e7f7      	b.n	8003554 <memmove+0x24>

08003564 <_free_r>:
 8003564:	b538      	push	{r3, r4, r5, lr}
 8003566:	4605      	mov	r5, r0
 8003568:	2900      	cmp	r1, #0
 800356a:	d043      	beq.n	80035f4 <_free_r+0x90>
 800356c:	f851 3c04 	ldr.w	r3, [r1, #-4]
 8003570:	1f0c      	subs	r4, r1, #4
 8003572:	2b00      	cmp	r3, #0
 8003574:	bfb8      	it	lt
 8003576:	18e4      	addlt	r4, r4, r3
 8003578:	f000 f8d0 	bl	800371c <__malloc_lock>
 800357c:	4a1e      	ldr	r2, [pc, #120]	; (80035f8 <_free_r+0x94>)
 800357e:	6813      	ldr	r3, [r2, #0]
 8003580:	4610      	mov	r0, r2
 8003582:	b933      	cbnz	r3, 8003592 <_free_r+0x2e>
 8003584:	6063      	str	r3, [r4, #4]
 8003586:	6014      	str	r4, [r2, #0]
 8003588:	4628      	mov	r0, r5
 800358a:	e8bd 4038 	ldmia.w	sp!, {r3, r4, r5, lr}
 800358e:	f000 b8cb 	b.w	8003728 <__malloc_unlock>
 8003592:	42a3      	cmp	r3, r4
 8003594:	d90a      	bls.n	80035ac <_free_r+0x48>
 8003596:	6821      	ldr	r1, [r4, #0]
 8003598:	1862      	adds	r2, r4, r1
 800359a:	4293      	cmp	r3, r2
 800359c:	bf01      	itttt	eq
 800359e:	681a      	ldreq	r2, [r3, #0]
 80035a0:	685b      	ldreq	r3, [r3, #4]
 80035a2:	1852      	addeq	r2, r2, r1
 80035a4:	6022      	streq	r2, [r4, #0]
 80035a6:	6063      	str	r3, [r4, #4]
 80035a8:	6004      	str	r4, [r0, #0]
 80035aa:	e7ed      	b.n	8003588 <_free_r+0x24>
 80035ac:	461a      	mov	r2, r3
 80035ae:	685b      	ldr	r3, [r3, #4]
 80035b0:	b10b      	cbz	r3, 80035b6 <_free_r+0x52>
 80035b2:	42a3      	cmp	r3, r4
 80035b4:	d9fa      	bls.n	80035ac <_free_r+0x48>
 80035b6:	6811      	ldr	r1, [r2, #0]
 80035b8:	1850      	adds	r0, r2, r1
 80035ba:	42a0      	cmp	r0, r4
 80035bc:	d10b      	bne.n	80035d6 <_free_r+0x72>
 80035be:	6820      	ldr	r0, [r4, #0]
 80035c0:	4401      	add	r1, r0
 80035c2:	1850      	adds	r0, r2, r1
 80035c4:	4283      	cmp	r3, r0
 80035c6:	6011      	str	r1, [r2, #0]
 80035c8:	d1de      	bne.n	8003588 <_free_r+0x24>
 80035ca:	6818      	ldr	r0, [r3, #0]
 80035cc:	685b      	ldr	r3, [r3, #4]
 80035ce:	4401      	add	r1, r0
 80035d0:	6011      	str	r1, [r2, #0]
 80035d2:	6053      	str	r3, [r2, #4]
 80035d4:	e7d8      	b.n	8003588 <_free_r+0x24>
 80035d6:	d902      	bls.n	80035de <_free_r+0x7a>
 80035d8:	230c      	movs	r3, #12
 80035da:	602b      	str	r3, [r5, #0]
 80035dc:	e7d4      	b.n	8003588 <_free_r+0x24>
 80035de:	6820      	ldr	r0, [r4, #0]
 80035e0:	1821      	adds	r1, r4, r0
 80035e2:	428b      	cmp	r3, r1
 80035e4:	bf01      	itttt	eq
 80035e6:	6819      	ldreq	r1, [r3, #0]
 80035e8:	685b      	ldreq	r3, [r3, #4]
 80035ea:	1809      	addeq	r1, r1, r0
 80035ec:	6021      	streq	r1, [r4, #0]
 80035ee:	6063      	str	r3, [r4, #4]
 80035f0:	6054      	str	r4, [r2, #4]
 80035f2:	e7c9      	b.n	8003588 <_free_r+0x24>
 80035f4:	bd38      	pop	{r3, r4, r5, pc}
 80035f6:	bf00      	nop
 80035f8:	200000d0 	.word	0x200000d0

080035fc <_malloc_r>:
 80035fc:	b5f8      	push	{r3, r4, r5, r6, r7, lr}
 80035fe:	1ccd      	adds	r5, r1, #3
 8003600:	f025 0503 	bic.w	r5, r5, #3
 8003604:	3508      	adds	r5, #8
 8003606:	2d0c      	cmp	r5, #12
 8003608:	bf38      	it	cc
 800360a:	250c      	movcc	r5, #12
 800360c:	2d00      	cmp	r5, #0
 800360e:	4606      	mov	r6, r0
 8003610:	db01      	blt.n	8003616 <_malloc_r+0x1a>
 8003612:	42a9      	cmp	r1, r5
 8003614:	d903      	bls.n	800361e <_malloc_r+0x22>
 8003616:	230c      	movs	r3, #12
 8003618:	6033      	str	r3, [r6, #0]
 800361a:	2000      	movs	r0, #0
 800361c:	bdf8      	pop	{r3, r4, r5, r6, r7, pc}
 800361e:	f000 f87d 	bl	800371c <__malloc_lock>
 8003622:	4921      	ldr	r1, [pc, #132]	; (80036a8 <_malloc_r+0xac>)
 8003624:	680a      	ldr	r2, [r1, #0]
 8003626:	4614      	mov	r4, r2
 8003628:	b99c      	cbnz	r4, 8003652 <_malloc_r+0x56>
 800362a:	4f20      	ldr	r7, [pc, #128]	; (80036ac <_malloc_r+0xb0>)
 800362c:	683b      	ldr	r3, [r7, #0]
 800362e:	b923      	cbnz	r3, 800363a <_malloc_r+0x3e>
 8003630:	4621      	mov	r1, r4
 8003632:	4630      	mov	r0, r6
 8003634:	f000 f862 	bl	80036fc <_sbrk_r>
 8003638:	6038      	str	r0, [r7, #0]
 800363a:	4629      	mov	r1, r5
 800363c:	4630      	mov	r0, r6
 800363e:	f000 f85d 	bl	80036fc <_sbrk_r>
 8003642:	1c43      	adds	r3, r0, #1
 8003644:	d123      	bne.n	800368e <_malloc_r+0x92>
 8003646:	230c      	movs	r3, #12
 8003648:	4630      	mov	r0, r6
 800364a:	6033      	str	r3, [r6, #0]
 800364c:	f000 f86c 	bl	8003728 <__malloc_unlock>
 8003650:	e7e3      	b.n	800361a <_malloc_r+0x1e>
 8003652:	6823      	ldr	r3, [r4, #0]
 8003654:	1b5b      	subs	r3, r3, r5
 8003656:	d417      	bmi.n	8003688 <_malloc_r+0x8c>
 8003658:	2b0b      	cmp	r3, #11
 800365a:	d903      	bls.n	8003664 <_malloc_r+0x68>
 800365c:	6023      	str	r3, [r4, #0]
 800365e:	441c      	add	r4, r3
 8003660:	6025      	str	r5, [r4, #0]
 8003662:	e004      	b.n	800366e <_malloc_r+0x72>
 8003664:	6863      	ldr	r3, [r4, #4]
 8003666:	42a2      	cmp	r2, r4
 8003668:	bf0c      	ite	eq
 800366a:	600b      	streq	r3, [r1, #0]
 800366c:	6053      	strne	r3, [r2, #4]
 800366e:	4630      	mov	r0, r6
 8003670:	f000 f85a 	bl	8003728 <__malloc_unlock>
 8003674:	f104 000b 	add.w	r0, r4, #11
 8003678:	1d23      	adds	r3, r4, #4
 800367a:	f020 0007 	bic.w	r0, r0, #7
 800367e:	1ac2      	subs	r2, r0, r3
 8003680:	d0cc      	beq.n	800361c <_malloc_r+0x20>
 8003682:	1a1b      	subs	r3, r3, r0
 8003684:	50a3      	str	r3, [r4, r2]
 8003686:	e7c9      	b.n	800361c <_malloc_r+0x20>
 8003688:	4622      	mov	r2, r4
 800368a:	6864      	ldr	r4, [r4, #4]
 800368c:	e7cc      	b.n	8003628 <_malloc_r+0x2c>
 800368e:	1cc4      	adds	r4, r0, #3
 8003690:	f024 0403 	bic.w	r4, r4, #3
 8003694:	42a0      	cmp	r0, r4
 8003696:	d0e3      	beq.n	8003660 <_malloc_r+0x64>
 8003698:	1a21      	subs	r1, r4, r0
 800369a:	4630      	mov	r0, r6
 800369c:	f000 f82e 	bl	80036fc <_sbrk_r>
 80036a0:	3001      	adds	r0, #1
 80036a2:	d1dd      	bne.n	8003660 <_malloc_r+0x64>
 80036a4:	e7cf      	b.n	8003646 <_malloc_r+0x4a>
 80036a6:	bf00      	nop
 80036a8:	200000d0 	.word	0x200000d0
 80036ac:	200000d4 	.word	0x200000d4

080036b0 <_realloc_r>:
 80036b0:	b5f8      	push	{r3, r4, r5, r6, r7, lr}
 80036b2:	4607      	mov	r7, r0
 80036b4:	4614      	mov	r4, r2
 80036b6:	460e      	mov	r6, r1
 80036b8:	b921      	cbnz	r1, 80036c4 <_realloc_r+0x14>
 80036ba:	4611      	mov	r1, r2
 80036bc:	e8bd 40f8 	ldmia.w	sp!, {r3, r4, r5, r6, r7, lr}
 80036c0:	f7ff bf9c 	b.w	80035fc <_malloc_r>
 80036c4:	b922      	cbnz	r2, 80036d0 <_realloc_r+0x20>
 80036c6:	f7ff ff4d 	bl	8003564 <_free_r>
 80036ca:	4625      	mov	r5, r4
 80036cc:	4628      	mov	r0, r5
 80036ce:	bdf8      	pop	{r3, r4, r5, r6, r7, pc}
 80036d0:	f000 f830 	bl	8003734 <_malloc_usable_size_r>
 80036d4:	42a0      	cmp	r0, r4
 80036d6:	d20f      	bcs.n	80036f8 <_realloc_r+0x48>
 80036d8:	4621      	mov	r1, r4
 80036da:	4638      	mov	r0, r7
 80036dc:	f7ff ff8e 	bl	80035fc <_malloc_r>
 80036e0:	4605      	mov	r5, r0
 80036e2:	2800      	cmp	r0, #0
 80036e4:	d0f2      	beq.n	80036cc <_realloc_r+0x1c>
 80036e6:	4631      	mov	r1, r6
 80036e8:	4622      	mov	r2, r4
 80036ea:	f7ff ff13 	bl	8003514 <memcpy>
 80036ee:	4631      	mov	r1, r6
 80036f0:	4638      	mov	r0, r7
 80036f2:	f7ff ff37 	bl	8003564 <_free_r>
 80036f6:	e7e9      	b.n	80036cc <_realloc_r+0x1c>
 80036f8:	4635      	mov	r5, r6
 80036fa:	e7e7      	b.n	80036cc <_realloc_r+0x1c>

080036fc <_sbrk_r>:
 80036fc:	b538      	push	{r3, r4, r5, lr}
 80036fe:	2300      	movs	r3, #0
 8003700:	4d05      	ldr	r5, [pc, #20]	; (8003718 <_sbrk_r+0x1c>)
 8003702:	4604      	mov	r4, r0
 8003704:	4608      	mov	r0, r1
 8003706:	602b      	str	r3, [r5, #0]
 8003708:	f7fd ff08 	bl	800151c <_sbrk>
 800370c:	1c43      	adds	r3, r0, #1
 800370e:	d102      	bne.n	8003716 <_sbrk_r+0x1a>
 8003710:	682b      	ldr	r3, [r5, #0]
 8003712:	b103      	cbz	r3, 8003716 <_sbrk_r+0x1a>
 8003714:	6023      	str	r3, [r4, #0]
 8003716:	bd38      	pop	{r3, r4, r5, pc}
 8003718:	20000218 	.word	0x20000218

0800371c <__malloc_lock>:
 800371c:	4801      	ldr	r0, [pc, #4]	; (8003724 <__malloc_lock+0x8>)
 800371e:	f000 b811 	b.w	8003744 <__retarget_lock_acquire_recursive>
 8003722:	bf00      	nop
 8003724:	20000220 	.word	0x20000220

08003728 <__malloc_unlock>:
 8003728:	4801      	ldr	r0, [pc, #4]	; (8003730 <__malloc_unlock+0x8>)
 800372a:	f000 b80c 	b.w	8003746 <__retarget_lock_release_recursive>
 800372e:	bf00      	nop
 8003730:	20000220 	.word	0x20000220

08003734 <_malloc_usable_size_r>:
 8003734:	f851 3c04 	ldr.w	r3, [r1, #-4]
 8003738:	1f18      	subs	r0, r3, #4
 800373a:	2b00      	cmp	r3, #0
 800373c:	bfbc      	itt	lt
 800373e:	580b      	ldrlt	r3, [r1, r0]
 8003740:	18c0      	addlt	r0, r0, r3
 8003742:	4770      	bx	lr

08003744 <__retarget_lock_acquire_recursive>:
 8003744:	4770      	bx	lr

08003746 <__retarget_lock_release_recursive>:
 8003746:	4770      	bx	lr

08003748 <_init>:
 8003748:	b5f8      	push	{r3, r4, r5, r6, r7, lr}
 800374a:	bf00      	nop
 800374c:	bcf8      	pop	{r3, r4, r5, r6, r7}
 800374e:	bc08      	pop	{r3}
 8003750:	469e      	mov	lr, r3
 8003752:	4770      	bx	lr

08003754 <_fini>:
 8003754:	b5f8      	push	{r3, r4, r5, r6, r7, lr}
 8003756:	bf00      	nop
 8003758:	bcf8      	pop	{r3, r4, r5, r6, r7}
 800375a:	bc08      	pop	{r3}
 800375c:	469e      	mov	lr, r3
 800375e:	4770      	bx	lr
